Certificate:
    Data:
        Version: 3 (0x2)
        Serial Number: 260 (0x104)
        Signature Algorithm: sha1WithRSAEncryption
        Issuer: C=AU, ST=Australia, O=APEagers Ltd, OU=RDP-GK, CN=APE-CA.apeagers.com.au/emailAddress=issadmin@apeagers.com.au
        Validity
            Not Before: Mar 24 23:56:32 2013 GMT
            Not After : Mar 24 23:56:32 2014 GMT
        Subject: C=AU, ST=Australia, L=Australia, O=APEagers Ltd, OU=RDP-GK, CN=emp.gk.apeagers.com.au
        Subject Public Key Info:
            Public Key Algorithm: rsaEncryption
            RSA Public Key: (2048 bit)
                Modulus (2048 bit):
                    00:d8:74:de:cb:7c:3d:90:32:3f:c3:d4:19:e5:fa:
                    9b:cb:75:c3:92:6f:db:27:cf:f4:b8:b5:27:e8:5a:
                    a2:64:d0:8d:94:ec:22:c3:40:cf:de:8e:7b:68:df:
                    19:42:35:d1:d3:95:61:13:05:e8:a1:3a:ff:ee:6b:
                    fc:3d:d7:aa:b4:c2:42:ea:9f:97:c5:a8:b0:05:93:
                    dc:a9:25:32:8c:64:8f:b4:8d:05:15:ca:fd:30:06:
                    26:39:12:86:f1:5c:d0:e0:ce:21:ee:09:1d:3a:8d:
                    1a:ee:01:27:b8:03:de:6a:ac:8d:57:8f:9b:ba:74:
                    3b:e7:ba:50:1b:20:ec:db:ec:8e:98:b4:32:06:93:
                    39:b8:33:96:8a:8f:04:f3:1b:d6:b5:8e:90:e2:29:
                    73:71:12:6a:57:39:5b:49:37:06:85:50:7d:9f:2d:
                    ef:ba:4f:ad:c2:ed:2d:a7:18:76:50:e0:4c:17:de:
                    fc:7d:f9:e8:7d:fb:75:7a:99:32:d5:bd:52:37:22:
                    da:50:c4:5b:89:cb:24:e6:4f:eb:29:94:11:6b:fc:
                    e9:fd:b8:83:f9:38:8a:54:06:b0:11:a6:ee:7d:e6:
                    d5:4b:73:4e:5d:b9:88:97:02:b8:ab:23:d1:a4:e7:
                    a6:6e:c9:25:98:a1:00:95:11:73:05:0c:25:03:04:
                    9f:05
                Exponent: 65537 (0x10001)
        X509v3 extensions:
            X509v3 Basic Constraints: 
                CA:FALSE
            X509v3 Authority Key Identifier: 
                keyid:3A:DF:F9:12:FA:42:22:C8:C1:2E:D1:4A:D7:82:51:9F:0B:A4:CC:36
                DirName:/C=AU/ST=Australia/L=Australia/O=APEagers Ltd/OU=RDP-GK/CN=CA.apeagers.com.au/emailAddress=issadmin@apeagers.com.au
                serial:01:00

            X509v3 Key Usage: critical
                Digital Signature, Key Encipherment
            X509v3 Extended Key Usage: critical
                TLS Web Server Authentication, TLS Web Client Authentication
            Authority Information Access: 
                CA Issuers - URI:http://www.apeagers.com.au/

    Signature Algorithm: sha1WithRSAEncryption
        2a:0b:85:35:ed:06:30:47:32:cb:36:2c:5f:cc:ae:21:01:64:
        17:5f:7d:b8:1f:44:f0:16:63:9d:89:72:bb:5b:78:97:1f:cf:
        6f:ec:85:59:de:04:6d:83:54:84:7f:40:95:bf:70:66:2d:2c:
        84:b4:35:06:ce:32:bd:42:d0:8c:1d:c9:47:b0:2d:91:70:9b:
        7a:fd:8f:81:07:53:26:ad:81:84:62:ba:77:cc:dd:2d:65:3b:
        ae:e0:01:25:8b:7d:cf:ad:bb:8f:55:56:3a:81:32:3b:d0:7c:
        a7:1a:2e:86:c4:6d:dc:be:36:6b:74:03:2c:81:16:75:90:69:
        53:47:42:b4:b6:98:f9:8b:1e:7c:49:95:4f:ee:c0:74:62:15:
        c8:cc:43:e1:18:6d:43:84:1c:6f:b0:e3:80:13:c7:24:b1:7a:
        16:4f:67:d2:2c:8a:22:4d:cd:d3:17:ee:f6:77:ba:0a:97:d4:
        78:d0:ad:2b:82:f6:1f:63:73:77:ae:08:e4:b7:61:f8:90:69:
        28:b2:2d:72:76:de:ec:21:e4:a0:6d:5c:e7:04:52:57:0d:61:
        09:98:9f:8a:e4:25:be:08:e3:24:6d:83:42:cc:9c:3c:f8:f1:
        aa:86:2a:71:b7:09:a8:a0:41:f4:8b:11:4c:e6:c8:07:9a:23:
        58:3b:d8:bf
-----BEGIN CERTIFICATE-----
MIIE3jCCA8agAwIBAgICAQQwDQYJKoZIhvcNAQEFBQAwgZMxCzAJBgNVBAYTAkFV
MRIwEAYDVQQIEwlBdXN0cmFsaWExFTATBgNVBAoTDEFQRWFnZXJzIEx0ZDEPMA0G
A1UECxMGUkRQLUdLMR8wHQYDVQQDExZBUEUtQ0EuYXBlYWdlcnMuY29tLmF1MScw
JQYJKoZIhvcNAQkBFhhpc3NhZG1pbkBhcGVhZ2Vycy5jb20uYXUwHhcNMTMwMzI0
MjM1NjMyWhcNMTQwMzI0MjM1NjMyWjB+MQswCQYDVQQGEwJBVTESMBAGA1UECAwJ
QXVzdHJhbGlhMRIwEAYDVQQHDAlBdXN0cmFsaWExFTATBgNVBAoMDEFQRWFnZXJz
IEx0ZDEPMA0GA1UECwwGUkRQLUdLMR8wHQYDVQQDDBZlbXAuZ2suYXBlYWdlcnMu
Y29tLmF1MIIBIjANBgkqhkiG9w0BAQEFAAOCAQ8AMIIBCgKCAQEA2HTey3w9kDI/
w9QZ5fqby3XDkm/bJ8/0uLUn6FqiZNCNlOwiw0DP3o57aN8ZQjXR05VhEwXooTr/
7mv8PdeqtMJC6p+XxaiwBZPcqSUyjGSPtI0FFcr9MAYmORKG8VzQ4M4h7gkdOo0a
7gEnuAPeaqyNV4+bunQ757pQGyDs2+yOmLQyBpM5uDOWio8E8xvWtY6Q4ilzcRJq
VzlbSTcGhVB9ny3vuk+twu0tpxh2UOBMF978ffnofft1epky1b1SNyLaUMRbicsk
5k/rKZQRa/zp/biD+TiKVAawEabufebVS3NOXbmIlwK4qyPRpOembsklmKEAlRFz
BQwlAwSfBQIDAQABo4IBTjCCAUowCQYDVR0TBAIwADCB0QYDVR0jBIHJMIHGgBQ6
3/kS+kIiyMEu0UrXglGfC6TMNqGBqaSBpjCBozELMAkGA1UEBhMCQVUxEjAQBgNV
BAgTCUF1c3RyYWxpYTESMBAGA1UEBxMJQXVzdHJhbGlhMRUwEwYDVQQKEwxBUEVh
Z2VycyBMdGQxDzANBgNVBAsTBlJEUC1HSzEbMBkGA1UEAxMSQ0EuYXBlYWdlcnMu
Y29tLmF1MScwJQYJKoZIhvcNAQkBFhhpc3NhZG1pbkBhcGVhZ2Vycy5jb20uYXWC
AgEAMA4GA1UdDwEB/wQEAwIFoDAgBgNVHSUBAf8EFjAUBggrBgEFBQcDAQYIKwYB
BQUHAwIwNwYIKwYBBQUHAQEEKzApMCcGCCsGAQUFBzAChhtodHRwOi8vd3d3LmFw
ZWFnZXJzLmNvbS5hdS8wDQYJKoZIhvcNAQEFBQADggEBACoLhTXtBjBHMss2LF/M
riEBZBdffbgfRPAWY52JcrtbeJcfz2/shVneBG2DVIR/QJW/cGYtLIS0NQbOMr1C
0IwdyUewLZFwm3r9j4EHUyatgYRiunfM3S1lO67gASWLfc+tu49VVjqBMjvQfKca
LobEbdy+Nmt0AyyBFnWQaVNHQrS2mPmLHnxJlU/uwHRiFcjMQ+EYbUOEHG+w44AT
xySxehZPZ9IsiiJNzdMX7vZ3ugqX1HjQrSuC9h9jc3euCOS3YfiQaSiyLXJ23uwh
5KBtXOcEUlcNYQmYn4rkJb4I4yRtg0LMnDz48aqGKnG3CaigQfSLEUzmyAeaI1g7
2L8=
-----END CERTIFICATE-----
