Certificate Request:
    Data:
        Version: 0 (0x0)
        Subject: C=AU, ST=Queensland, L=Australia, O=APEagers Ltd, OU=RDP-GK, CN=gk.apeagers.com.au
        Subject Public Key Info:
            Public Key Algorithm: rsaEncryption
            RSA Public Key: (2048 bit)
                Modulus (2048 bit):
                    00:d8:74:de:cb:7c:3d:90:32:3f:c3:d4:19:e5:fa:
                    9b:cb:75:c3:92:6f:db:27:cf:f4:b8:b5:27:e8:5a:
                    a2:64:d0:8d:94:ec:22:c3:40:cf:de:8e:7b:68:df:
                    19:42:35:d1:d3:95:61:13:05:e8:a1:3a:ff:ee:6b:
                    fc:3d:d7:aa:b4:c2:42:ea:9f:97:c5:a8:b0:05:93:
                    dc:a9:25:32:8c:64:8f:b4:8d:05:15:ca:fd:30:06:
                    26:39:12:86:f1:5c:d0:e0:ce:21:ee:09:1d:3a:8d:
                    1a:ee:01:27:b8:03:de:6a:ac:8d:57:8f:9b:ba:74:
                    3b:e7:ba:50:1b:20:ec:db:ec:8e:98:b4:32:06:93:
                    39:b8:33:96:8a:8f:04:f3:1b:d6:b5:8e:90:e2:29:
                    73:71:12:6a:57:39:5b:49:37:06:85:50:7d:9f:2d:
                    ef:ba:4f:ad:c2:ed:2d:a7:18:76:50:e0:4c:17:de:
                    fc:7d:f9:e8:7d:fb:75:7a:99:32:d5:bd:52:37:22:
                    da:50:c4:5b:89:cb:24:e6:4f:eb:29:94:11:6b:fc:
                    e9:fd:b8:83:f9:38:8a:54:06:b0:11:a6:ee:7d:e6:
                    d5:4b:73:4e:5d:b9:88:97:02:b8:ab:23:d1:a4:e7:
                    a6:6e:c9:25:98:a1:00:95:11:73:05:0c:25:03:04:
                    9f:05
                Exponent: 65537 (0x10001)
        Attributes:
            a0:00
    Signature Algorithm: sha1WithRSAEncryption
        49:0a:13:b7:58:d0:dd:91:62:56:5e:b2:19:29:06:71:ab:5c:
        93:2c:ae:7a:a2:37:3a:5f:7c:db:9b:c8:11:b0:2c:70:02:1c:
        19:ef:9b:f8:41:49:0e:90:c5:02:c0:6e:80:6c:72:f8:1e:d1:
        75:7e:3c:b0:13:11:e4:5c:28:26:e8:98:fb:6e:f9:94:20:78:
        09:c9:09:17:9d:5d:81:60:1b:36:2d:cb:3e:ac:46:56:b6:09:
        e7:f5:17:a2:d5:61:d2:a2:ed:62:ac:53:02:12:fa:15:51:b2:
        6d:73:e1:56:a5:b1:79:94:cd:cd:0a:e1:e6:90:17:aa:93:b9:
        13:c6:b5:84:8c:6f:7d:6b:74:79:a4:01:31:ee:c6:9b:50:d4:
        6c:62:8d:a3:0c:e4:28:20:e4:d9:07:17:82:b5:04:b8:50:b3:
        4a:68:6f:55:bc:c1:28:46:c7:92:94:19:1d:01:7e:db:47:2f:
        fc:02:f9:29:7d:a3:c9:e2:49:10:a7:94:7b:cc:a3:b8:f8:05:
        4d:aa:ce:02:74:6b:bc:c5:0a:fb:2c:2f:19:1a:1a:51:1a:b1:
        f0:43:f4:91:e4:59:d3:82:e5:89:7e:74:bd:b6:6e:08:4b:f2:
        e2:5f:c0:e0:78:01:58:de:c6:6e:05:82:0e:6e:1e:bf:50:f3:
        e0:58:ec:ec
-----BEGIN CERTIFICATE REQUEST-----
MIICwDCCAagCAQAwezELMAkGA1UEBhMCQVUxEzARBgNVBAgMClF1ZWVuc2xhbmQx
EjAQBgNVBAcMCUF1c3RyYWxpYTEVMBMGA1UECgwMQVBFYWdlcnMgTHRkMQ8wDQYD
VQQLDAZSRFAtR0sxGzAZBgNVBAMMEmdrLmFwZWFnZXJzLmNvbS5hdTCCASIwDQYJ
KoZIhvcNAQEBBQADggEPADCCAQoCggEBANh03st8PZAyP8PUGeX6m8t1w5Jv2yfP
9Li1J+haomTQjZTsIsNAz96Oe2jfGUI10dOVYRMF6KE6/+5r/D3XqrTCQuqfl8Wo
sAWT3KklMoxkj7SNBRXK/TAGJjkShvFc0ODOIe4JHTqNGu4BJ7gD3mqsjVePm7p0
O+e6UBsg7Nvsjpi0MgaTObgzloqPBPMb1rWOkOIpc3ESalc5W0k3BoVQfZ8t77pP
rcLtLacYdlDgTBfe/H356H37dXqZMtW9Ujci2lDEW4nLJOZP6ymUEWv86f24g/k4
ilQGsBGm7n3m1UtzTl25iJcCuKsj0aTnpm7JJZihAJURcwUMJQMEnwUCAwEAAaAA
MA0GCSqGSIb3DQEBBQUAA4IBAQBJChO3WNDdkWJWXrIZKQZxq1yTLK56ojc6X3zb
m8gRsCxwAhwZ75v4QUkOkMUCwG6AbHL4HtF1fjywExHkXCgm6Jj7bvmUIHgJyQkX
nV2BYBs2Lcs+rEZWtgnn9Rei1WHSou1irFMCEvoVUbJtc+FWpbF5lM3NCuHmkBeq
k7kTxrWEjG99a3R5pAEx7sabUNRsYo2jDOQoIOTZBxeCtQS4ULNKaG9VvMEoRseS
lBkdAX7bRy/8AvkpfaPJ4kkQp5R7zKO4+AVNqs4CdGu8xQr7LC8ZGhpRGrHwQ/SR
5FnTguWJfnS9tm4IS/LiX8DgeAFY3sZuBYIObh6/UPPgWOzs
-----END CERTIFICATE REQUEST-----
