Certificate:
    Data:
        Version: 3 (0x2)
        Serial Number: 257 (0x101)
        Signature Algorithm: sha1WithRSAEncryption
        Issuer: C=AU, ST=Australia, L=Australia, O=APEagers Ltd, OU=RDP-GK, CN=CA.apeagers.com.au/emailAddress=issadmin@apeagers.com.au
        Validity
            Not Before: Mar 25 23:41:26 2014 GMT
            Not After : Mar 25 23:41:26 2015 GMT
        Subject: C=AU, ST=Australia, O=APEagers Ltd, OU=RDP-GK, CN=APE-CA.apeagers.com.au/emailAddress=issadmin@apeagers.com.au
        Subject Public Key Info:
            Public Key Algorithm: rsaEncryption
            RSA Public Key: (2048 bit)
                Modulus (2048 bit):
                    00:d8:74:de:cb:7c:3d:90:32:3f:c3:d4:19:e5:fa:
                    9b:cb:75:c3:92:6f:db:27:cf:f4:b8:b5:27:e8:5a:
                    a2:64:d0:8d:94:ec:22:c3:40:cf:de:8e:7b:68:df:
                    19:42:35:d1:d3:95:61:13:05:e8:a1:3a:ff:ee:6b:
                    fc:3d:d7:aa:b4:c2:42:ea:9f:97:c5:a8:b0:05:93:
                    dc:a9:25:32:8c:64:8f:b4:8d:05:15:ca:fd:30:06:
                    26:39:12:86:f1:5c:d0:e0:ce:21:ee:09:1d:3a:8d:
                    1a:ee:01:27:b8:03:de:6a:ac:8d:57:8f:9b:ba:74:
                    3b:e7:ba:50:1b:20:ec:db:ec:8e:98:b4:32:06:93:
                    39:b8:33:96:8a:8f:04:f3:1b:d6:b5:8e:90:e2:29:
                    73:71:12:6a:57:39:5b:49:37:06:85:50:7d:9f:2d:
                    ef:ba:4f:ad:c2:ed:2d:a7:18:76:50:e0:4c:17:de:
                    fc:7d:f9:e8:7d:fb:75:7a:99:32:d5:bd:52:37:22:
                    da:50:c4:5b:89:cb:24:e6:4f:eb:29:94:11:6b:fc:
                    e9:fd:b8:83:f9:38:8a:54:06:b0:11:a6:ee:7d:e6:
                    d5:4b:73:4e:5d:b9:88:97:02:b8:ab:23:d1:a4:e7:
                    a6:6e:c9:25:98:a1:00:95:11:73:05:0c:25:03:04:
                    9f:05
                Exponent: 65537 (0x10001)
        X509v3 extensions:
            X509v3 Subject Key Identifier: 
                3A:DF:F9:12:FA:42:22:C8:C1:2E:D1:4A:D7:82:51:9F:0B:A4:CC:36
            X509v3 Authority Key Identifier: 
                keyid:A9:AF:55:F5:2E:95:1F:AE:56:68:5A:7B:35:92:F7:AB:BC:3A:64:A1
                DirName:/C=AU/ST=Australia/L=Australia/O=APEagers Ltd/OU=RDP-GK/CN=CA.apeagers.com.au/emailAddress=issadmin@apeagers.com.au
                serial:A7:21:77:B6:FA:7B:11:3D

            X509v3 Basic Constraints: 
                CA:TRUE
    Signature Algorithm: sha1WithRSAEncryption
        a3:dd:c2:93:a4:76:0b:7f:ec:2e:5e:63:20:eb:b5:83:8d:e5:
        fa:55:ea:31:0a:08:62:f7:07:ef:51:f9:c9:d7:57:7b:0b:29:
        f4:a4:7a:55:d0:ff:49:c8:46:fb:91:79:13:f6:ce:f2:10:2a:
        e7:4a:90:10:1e:2e:2b:a6:70:33:3b:b5:ba:0a:8d:f4:4f:c4:
        95:96:5e:85:06:08:99:c6:0b:55:b1:34:f2:96:94:2c:48:15:
        a6:ce:2d:ab:8b:ac:50:ac:21:97:3a:c7:9b:06:5a:48:52:1b:
        11:5d:97:b5:55:0c:16:85:ac:89:43:d0:5a:78:68:0f:d6:ee:
        94:ee:2a:3e:3c:95:17:5f:17:55:c4:d7:c9:fe:43:f6:44:99:
        c9:6b:74:6c:03:db:43:b7:13:29:df:d4:6f:2c:2c:ad:15:03:
        b3:37:3b:d4:b8:4f:e8:f1:e8:46:0c:41:27:b6:ee:b9:c1:51:
        d5:72:ed:25:36:b0:ae:9a:7f:87:f4:b4:f8:e8:45:4c:eb:54:
        7d:0d:c8:52:fe:74:9b:a1:3f:31:81:89:c8:2b:a8:e3:6b:1a:
        43:93:d2:dd:b2:58:a6:37:a0:64:c0:0d:5b:cb:52:06:26:4a:
        98:39:55:53:7f:5d:44:02:45:47:6f:00:57:64:eb:2f:51:f5:
        42:d9:aa:c8
-----BEGIN CERTIFICATE-----
MIIEwjCCA6qgAwIBAgICAQEwDQYJKoZIhvcNAQEFBQAwgaMxCzAJBgNVBAYTAkFV
MRIwEAYDVQQIEwlBdXN0cmFsaWExEjAQBgNVBAcTCUF1c3RyYWxpYTEVMBMGA1UE
ChMMQVBFYWdlcnMgTHRkMQ8wDQYDVQQLEwZSRFAtR0sxGzAZBgNVBAMTEkNBLmFw
ZWFnZXJzLmNvbS5hdTEnMCUGCSqGSIb3DQEJARYYaXNzYWRtaW5AYXBlYWdlcnMu
Y29tLmF1MB4XDTE0MDMyNTIzNDEyNloXDTE1MDMyNTIzNDEyNlowgZMxCzAJBgNV
BAYTAkFVMRIwEAYDVQQIEwlBdXN0cmFsaWExFTATBgNVBAoTDEFQRWFnZXJzIEx0
ZDEPMA0GA1UECxMGUkRQLUdLMR8wHQYDVQQDExZBUEUtQ0EuYXBlYWdlcnMuY29t
LmF1MScwJQYJKoZIhvcNAQkBFhhpc3NhZG1pbkBhcGVhZ2Vycy5jb20uYXUwggEi
MA0GCSqGSIb3DQEBAQUAA4IBDwAwggEKAoIBAQDYdN7LfD2QMj/D1Bnl+pvLdcOS
b9snz/S4tSfoWqJk0I2U7CLDQM/ejnto3xlCNdHTlWETBeihOv/ua/w916q0wkLq
n5fFqLAFk9ypJTKMZI+0jQUVyv0wBiY5EobxXNDgziHuCR06jRruASe4A95qrI1X
j5u6dDvnulAbIOzb7I6YtDIGkzm4M5aKjwTzG9a1jpDiKXNxEmpXOVtJNwaFUH2f
Le+6T63C7S2nGHZQ4EwX3vx9+eh9+3V6mTLVvVI3ItpQxFuJyyTmT+splBFr/On9
uIP5OIpUBrARpu595tVLc05duYiXArirI9Gk56ZuySWYoQCVEXMFDCUDBJ8FAgMB
AAGjggEMMIIBCDAdBgNVHQ4EFgQUOt/5EvpCIsjBLtFK14JRnwukzDYwgdgGA1Ud
IwSB0DCBzYAUqa9V9S6VH65WaFp7NZL3q7w6ZKGhgamkgaYwgaMxCzAJBgNVBAYT
AkFVMRIwEAYDVQQIEwlBdXN0cmFsaWExEjAQBgNVBAcTCUF1c3RyYWxpYTEVMBMG
A1UEChMMQVBFYWdlcnMgTHRkMQ8wDQYDVQQLEwZSRFAtR0sxGzAZBgNVBAMTEkNB
LmFwZWFnZXJzLmNvbS5hdTEnMCUGCSqGSIb3DQEJARYYaXNzYWRtaW5AYXBlYWdl
cnMuY29tLmF1ggkApyF3tvp7ET0wDAYDVR0TBAUwAwEB/zANBgkqhkiG9w0BAQUF
AAOCAQEAo93Ck6R2C3/sLl5jIOu1g43l+lXqMQoIYvcH71H5yddXewsp9KR6VdD/
SchG+5F5E/bO8hAq50qQEB4uK6ZwMzu1ugqN9E/ElZZehQYImcYLVbE08paULEgV
ps4tq4usUKwhlzrHmwZaSFIbEV2XtVUMFoWsiUPQWnhoD9bulO4qPjyVF18XVcTX
yf5D9kSZyWt0bAPbQ7cTKd/UbywsrRUDszc71LhP6PHoRgxBJ7buucFR1XLtJTaw
rpp/h/S0+OhFTOtUfQ3IUv50m6E/MYGJyCuo42saQ5PS3bJYpjegZMANW8tSBiZK
mDlVU39dRAJFR28AV2TrL1H1QtmqyA==
-----END CERTIFICATE-----
