Certificate:
    Data:
        Version: 3 (0x2)
        Serial Number: 256 (0x100)
        Signature Algorithm: sha1WithRSAEncryption
        Issuer: C=AU, ST=Australia, O=APEagers Ltd, OU=RDP-GK, CN=APE-CA.apeagers.com.au/emailAddress=issadmin@apeagers.com.au
        Validity
            Not Before: Mar 19 04:12:20 2013 GMT
            Not After : Mar 19 04:12:20 2014 GMT
        Subject: C=AU, ST=Queensland, L=Australia, O=APEagers Ltd, OU=RDP-GK, CN=gk.apeagers.com.au
        Subject Public Key Info:
            Public Key Algorithm: rsaEncryption
            RSA Public Key: (2048 bit)
                Modulus (2048 bit):
                    00:b8:c9:a1:7d:ca:01:0a:c9:f6:0d:40:b5:ec:81:
                    fc:e0:fb:c0:c9:2d:48:bf:9a:f8:ad:4f:7b:68:3b:
                    34:56:64:da:37:99:18:2a:22:50:e0:a4:30:7f:e7:
                    c3:42:4b:ba:a8:85:8e:d6:0e:6d:4c:99:3f:9b:2c:
                    4d:f1:ab:4e:90:cf:af:28:b5:25:2b:56:2c:2b:b8:
                    4b:fc:71:f2:a5:c6:57:c5:1b:a5:64:40:f6:76:0b:
                    a7:7d:12:50:96:2a:80:07:67:17:ab:70:23:6b:9c:
                    ef:8f:46:1b:3c:1f:d3:20:6c:86:d6:21:64:80:d2:
                    6f:a5:fe:98:38:50:40:db:08:74:a5:c3:35:80:5a:
                    cf:4a:8e:2f:8e:33:6f:28:06:08:65:1b:a3:0e:ac:
                    c8:02:dd:bc:69:6d:72:26:84:18:7b:37:05:f1:1b:
                    83:b5:17:b4:53:73:1a:6e:61:b3:77:3b:4c:19:4a:
                    02:65:a7:0e:9c:80:99:2c:d4:e4:e1:24:86:13:fb:
                    57:50:b6:bd:43:6f:60:93:62:77:0b:42:e8:56:c5:
                    d7:00:1d:d4:0b:be:32:85:ae:b6:dd:82:a1:3e:7c:
                    e3:ab:fc:89:94:1c:9c:81:eb:e7:d2:13:9b:98:b8:
                    76:f4:cc:df:04:a9:8c:ff:a6:72:c0:4f:81:87:16:
                    92:c5
                Exponent: 65537 (0x10001)
        X509v3 extensions:
            X509v3 Basic Constraints: 
                CA:FALSE
            Netscape Comment: 
                OpenSSL Generated Certificate
            X509v3 Subject Key Identifier: 
                5B:31:C1:61:C2:DF:EE:2F:1D:F7:84:57:B7:D2:3D:30:D5:CD:9D:AC
            X509v3 Authority Key Identifier: 
                keyid:73:30:9E:9D:57:82:BA:E2:D2:95:44:76:31:42:65:D8:1B:BB:D0:0C

    Signature Algorithm: sha1WithRSAEncryption
        2f:4d:1d:56:74:f6:a1:99:cf:41:68:d7:04:60:12:03:60:ac:
        36:a7:54:bc:20:eb:4b:88:14:a4:42:23:30:10:90:5c:5c:2f:
        98:24:e6:16:d5:59:46:b3:20:dd:fc:39:39:29:1c:7f:00:23:
        45:71:ab:cc:25:04:cd:02:f0:3e:f9:cd:f4:72:56:d7:9e:63:
        17:bd:8f:4e:c7:e1:61:64:77:54:3f:46:02:59:5f:ab:9a:69:
        93:7a:53:2d:64:06:df:35:b2:04:29:db:fc:7f:8a:be:b5:7a:
        d4:3a:98:8c:38:df:50:6a:a0:a1:a4:59:38:3e:c1:ac:11:5f:
        33:7e:73:34:9f:be:8c:0c:65:b7:6e:7e:6d:62:e5:39:cf:b1:
        74:42:5e:99:c7:6e:11:23:2a:5b:05:c1:d0:3e:84:76:68:28:
        b9:3d:f3:d9:6b:40:f9:21:6d:dc:13:a1:23:1f:10:ce:5f:82:
        d5:97:8f:53:f5:a6:4f:99:ea:5b:cc:5b:77:af:81:17:71:52:
        78:7a:10:a1:b0:1a:87:fe:1a:3e:5e:14:06:7e:c5:9f:e5:f0:
        5f:d3:71:45:42:5f:b1:94:0c:fb:5c:25:81:ed:5d:53:09:52:
        4a:92:ca:c1:fb:ef:0d:c4:3a:3d:54:40:79:9e:e2:3b:00:65:
        f5:de:2e:66
-----BEGIN CERTIFICATE-----
MIIEBjCCAu6gAwIBAgICAQAwDQYJKoZIhvcNAQEFBQAwgZMxCzAJBgNVBAYTAkFV
MRIwEAYDVQQIEwlBdXN0cmFsaWExFTATBgNVBAoTDEFQRWFnZXJzIEx0ZDEPMA0G
A1UECxMGUkRQLUdLMR8wHQYDVQQDExZBUEUtQ0EuYXBlYWdlcnMuY29tLmF1MScw
JQYJKoZIhvcNAQkBFhhpc3NhZG1pbkBhcGVhZ2Vycy5jb20uYXUwHhcNMTMwMzE5
MDQxMjIwWhcNMTQwMzE5MDQxMjIwWjB7MQswCQYDVQQGEwJBVTETMBEGA1UECAwK
UXVlZW5zbGFuZDESMBAGA1UEBwwJQXVzdHJhbGlhMRUwEwYDVQQKDAxBUEVhZ2Vy
cyBMdGQxDzANBgNVBAsMBlJEUC1HSzEbMBkGA1UEAwwSZ2suYXBlYWdlcnMuY29t
LmF1MIIBIjANBgkqhkiG9w0BAQEFAAOCAQ8AMIIBCgKCAQEAuMmhfcoBCsn2DUC1
7IH84PvAyS1Iv5r4rU97aDs0VmTaN5kYKiJQ4KQwf+fDQku6qIWO1g5tTJk/myxN
8atOkM+vKLUlK1YsK7hL/HHypcZXxRulZED2dgunfRJQliqAB2cXq3Aja5zvj0Yb
PB/TIGyG1iFkgNJvpf6YOFBA2wh0pcM1gFrPSo4vjjNvKAYIZRujDqzIAt28aW1y
JoQYezcF8RuDtRe0U3MabmGzdztMGUoCZacOnICZLNTk4SSGE/tXULa9Q29gk2J3
C0LoVsXXAB3UC74yha623YKhPnzjq/yJlBycgevn0hObmLh29MzfBKmM/6ZywE+B
hxaSxQIDAQABo3sweTAJBgNVHRMEAjAAMCwGCWCGSAGG+EIBDQQfFh1PcGVuU1NM
IEdlbmVyYXRlZCBDZXJ0aWZpY2F0ZTAdBgNVHQ4EFgQUWzHBYcLf7i8d94RXt9I9
MNXNnawwHwYDVR0jBBgwFoAUczCenVeCuuLSlUR2MUJl2Bu70AwwDQYJKoZIhvcN
AQEFBQADggEBAC9NHVZ09qGZz0Fo1wRgEgNgrDanVLwg60uIFKRCIzAQkFxcL5gk
5hbVWUazIN38OTkpHH8AI0Vxq8wlBM0C8D75zfRyVteeYxe9j07H4WFkd1Q/RgJZ
X6uaaZN6Uy1kBt81sgQp2/x/ir61etQ6mIw431BqoKGkWTg+wawRXzN+czSfvowM
Zbdufm1i5TnPsXRCXpnHbhEjKlsFwdA+hHZoKLk989lrQPkhbdwToSMfEM5fgtWX
j1P1pk+Z6lvMW3evgRdxUnh6EKGwGof+Gj5eFAZ+xZ/l8F/TcUVCX7GUDPtcJYHt
XVMJUkqSysH77w3EOj1UQHme4jsAZfXeLmY=
-----END CERTIFICATE-----
