Certificate:
    Data:
        Version: 3 (0x2)
        Serial Number: 257 (0x101)
        Signature Algorithm: sha1WithRSAEncryption
        Issuer: C=AU, ST=Australia, O=APEagers Ltd, OU=RDP-GK, CN=APE-CA.apeagers.com.au/emailAddress=issadmin@apeagers.com.au
        Validity
            Not Before: Mar 19 04:32:48 2013 GMT
            Not After : Mar 19 04:32:48 2014 GMT
        Subject: C=AU, ST=Queensland, L=Australia, O=APEagers Ltd, OU=RDP-GK, CN=gk.apeagers.com.au
        Subject Public Key Info:
            Public Key Algorithm: rsaEncryption
            RSA Public Key: (2048 bit)
                Modulus (2048 bit):
                    00:b8:c9:a1:7d:ca:01:0a:c9:f6:0d:40:b5:ec:81:
                    fc:e0:fb:c0:c9:2d:48:bf:9a:f8:ad:4f:7b:68:3b:
                    34:56:64:da:37:99:18:2a:22:50:e0:a4:30:7f:e7:
                    c3:42:4b:ba:a8:85:8e:d6:0e:6d:4c:99:3f:9b:2c:
                    4d:f1:ab:4e:90:cf:af:28:b5:25:2b:56:2c:2b:b8:
                    4b:fc:71:f2:a5:c6:57:c5:1b:a5:64:40:f6:76:0b:
                    a7:7d:12:50:96:2a:80:07:67:17:ab:70:23:6b:9c:
                    ef:8f:46:1b:3c:1f:d3:20:6c:86:d6:21:64:80:d2:
                    6f:a5:fe:98:38:50:40:db:08:74:a5:c3:35:80:5a:
                    cf:4a:8e:2f:8e:33:6f:28:06:08:65:1b:a3:0e:ac:
                    c8:02:dd:bc:69:6d:72:26:84:18:7b:37:05:f1:1b:
                    83:b5:17:b4:53:73:1a:6e:61:b3:77:3b:4c:19:4a:
                    02:65:a7:0e:9c:80:99:2c:d4:e4:e1:24:86:13:fb:
                    57:50:b6:bd:43:6f:60:93:62:77:0b:42:e8:56:c5:
                    d7:00:1d:d4:0b:be:32:85:ae:b6:dd:82:a1:3e:7c:
                    e3:ab:fc:89:94:1c:9c:81:eb:e7:d2:13:9b:98:b8:
                    76:f4:cc:df:04:a9:8c:ff:a6:72:c0:4f:81:87:16:
                    92:c5
                Exponent: 65537 (0x10001)
        X509v3 extensions:
            X509v3 Basic Constraints: 
                CA:FALSE
            Netscape Comment: 
                OpenSSL Generated Certificate
            X509v3 Subject Key Identifier: 
                5B:31:C1:61:C2:DF:EE:2F:1D:F7:84:57:B7:D2:3D:30:D5:CD:9D:AC
            X509v3 Authority Key Identifier: 
                keyid:73:30:9E:9D:57:82:BA:E2:D2:95:44:76:31:42:65:D8:1B:BB:D0:0C

    Signature Algorithm: sha1WithRSAEncryption
        70:0b:e6:c8:ac:98:27:00:fe:e3:1e:b7:12:cd:42:b0:54:9b:
        eb:98:58:d1:52:b8:2e:9e:f0:91:46:0d:c8:01:21:f0:22:3c:
        e7:3e:8a:70:fb:51:0f:03:44:53:15:d1:36:1c:cc:c7:2f:d7:
        a0:7a:83:a7:e6:64:e5:ce:05:94:41:8d:3f:86:f7:83:1d:9c:
        ab:76:14:9c:16:9f:87:7b:4d:cb:cc:60:8e:2b:18:9a:e1:8e:
        ff:4d:66:c8:50:3b:e9:0d:53:e2:08:9a:56:de:c7:7a:c0:b8:
        f7:cc:34:11:2f:b9:b5:be:b9:8e:17:db:6e:ac:99:d5:95:ce:
        bc:48:61:e7:fd:5d:08:c0:04:b4:1c:4e:76:7b:c4:c4:25:dd:
        f5:f2:4e:2e:a4:32:c1:e1:12:cd:cf:4d:54:77:23:92:32:2a:
        3f:5f:76:fb:86:5f:e7:91:2e:c3:01:19:0b:04:a2:8b:1f:6b:
        d4:42:cc:56:12:07:15:24:0b:db:b4:06:d5:96:d8:46:f3:b7:
        5a:f0:de:d5:0c:6e:e5:4b:b7:ce:52:ab:08:2e:0d:0b:93:4b:
        5c:62:7d:e6:2c:12:53:6c:23:81:c9:71:68:52:bc:ee:e9:d9:
        d6:79:34:5f:e4:40:f0:7b:18:32:02:f2:0e:64:c6:a7:62:ec:
        20:df:eb:4f
-----BEGIN CERTIFICATE-----
MIIEBjCCAu6gAwIBAgICAQEwDQYJKoZIhvcNAQEFBQAwgZMxCzAJBgNVBAYTAkFV
MRIwEAYDVQQIEwlBdXN0cmFsaWExFTATBgNVBAoTDEFQRWFnZXJzIEx0ZDEPMA0G
A1UECxMGUkRQLUdLMR8wHQYDVQQDExZBUEUtQ0EuYXBlYWdlcnMuY29tLmF1MScw
JQYJKoZIhvcNAQkBFhhpc3NhZG1pbkBhcGVhZ2Vycy5jb20uYXUwHhcNMTMwMzE5
MDQzMjQ4WhcNMTQwMzE5MDQzMjQ4WjB7MQswCQYDVQQGEwJBVTETMBEGA1UECAwK
UXVlZW5zbGFuZDESMBAGA1UEBwwJQXVzdHJhbGlhMRUwEwYDVQQKDAxBUEVhZ2Vy
cyBMdGQxDzANBgNVBAsMBlJEUC1HSzEbMBkGA1UEAwwSZ2suYXBlYWdlcnMuY29t
LmF1MIIBIjANBgkqhkiG9w0BAQEFAAOCAQ8AMIIBCgKCAQEAuMmhfcoBCsn2DUC1
7IH84PvAyS1Iv5r4rU97aDs0VmTaN5kYKiJQ4KQwf+fDQku6qIWO1g5tTJk/myxN
8atOkM+vKLUlK1YsK7hL/HHypcZXxRulZED2dgunfRJQliqAB2cXq3Aja5zvj0Yb
PB/TIGyG1iFkgNJvpf6YOFBA2wh0pcM1gFrPSo4vjjNvKAYIZRujDqzIAt28aW1y
JoQYezcF8RuDtRe0U3MabmGzdztMGUoCZacOnICZLNTk4SSGE/tXULa9Q29gk2J3
C0LoVsXXAB3UC74yha623YKhPnzjq/yJlBycgevn0hObmLh29MzfBKmM/6ZywE+B
hxaSxQIDAQABo3sweTAJBgNVHRMEAjAAMCwGCWCGSAGG+EIBDQQfFh1PcGVuU1NM
IEdlbmVyYXRlZCBDZXJ0aWZpY2F0ZTAdBgNVHQ4EFgQUWzHBYcLf7i8d94RXt9I9
MNXNnawwHwYDVR0jBBgwFoAUczCenVeCuuLSlUR2MUJl2Bu70AwwDQYJKoZIhvcN
AQEFBQADggEBAHAL5sismCcA/uMetxLNQrBUm+uYWNFSuC6e8JFGDcgBIfAiPOc+
inD7UQ8DRFMV0TYczMcv16B6g6fmZOXOBZRBjT+G94MdnKt2FJwWn4d7TcvMYI4r
GJrhjv9NZshQO+kNU+IImlbex3rAuPfMNBEvubW+uY4X226smdWVzrxIYef9XQjA
BLQcTnZ7xMQl3fXyTi6kMsHhEs3PTVR3I5IyKj9fdvuGX+eRLsMBGQsEoosfa9RC
zFYSBxUkC9u0BtWW2Ebzt1rw3tUMbuVLt85SqwguDQuTS1xifeYsElNsI4HJcWhS
vO7p2dZ5NF/kQPB7GDIC8g5kxqdi7CDf608=
-----END CERTIFICATE-----
