Certificate:
    Data:
        Version: 3 (0x2)
        Serial Number: 258 (0x102)
        Signature Algorithm: sha1WithRSAEncryption
        Issuer: C=AU, ST=Australia, O=APEagers Ltd, OU=RDP-GK, CN=APE-CA.apeagers.com.au/emailAddress=issadmin@apeagers.com.au
        Validity
            Not Before: Mar 19 04:34:59 2013 GMT
            Not After : Mar 19 04:34:59 2014 GMT
        Subject: C=AU, ST=Queensland, L=Australia, O=APEagers Ltd, OU=RDP-GK, CN=gk.apeagers.com.au
        Subject Public Key Info:
            Public Key Algorithm: rsaEncryption
            RSA Public Key: (2048 bit)
                Modulus (2048 bit):
                    00:b8:c9:a1:7d:ca:01:0a:c9:f6:0d:40:b5:ec:81:
                    fc:e0:fb:c0:c9:2d:48:bf:9a:f8:ad:4f:7b:68:3b:
                    34:56:64:da:37:99:18:2a:22:50:e0:a4:30:7f:e7:
                    c3:42:4b:ba:a8:85:8e:d6:0e:6d:4c:99:3f:9b:2c:
                    4d:f1:ab:4e:90:cf:af:28:b5:25:2b:56:2c:2b:b8:
                    4b:fc:71:f2:a5:c6:57:c5:1b:a5:64:40:f6:76:0b:
                    a7:7d:12:50:96:2a:80:07:67:17:ab:70:23:6b:9c:
                    ef:8f:46:1b:3c:1f:d3:20:6c:86:d6:21:64:80:d2:
                    6f:a5:fe:98:38:50:40:db:08:74:a5:c3:35:80:5a:
                    cf:4a:8e:2f:8e:33:6f:28:06:08:65:1b:a3:0e:ac:
                    c8:02:dd:bc:69:6d:72:26:84:18:7b:37:05:f1:1b:
                    83:b5:17:b4:53:73:1a:6e:61:b3:77:3b:4c:19:4a:
                    02:65:a7:0e:9c:80:99:2c:d4:e4:e1:24:86:13:fb:
                    57:50:b6:bd:43:6f:60:93:62:77:0b:42:e8:56:c5:
                    d7:00:1d:d4:0b:be:32:85:ae:b6:dd:82:a1:3e:7c:
                    e3:ab:fc:89:94:1c:9c:81:eb:e7:d2:13:9b:98:b8:
                    76:f4:cc:df:04:a9:8c:ff:a6:72:c0:4f:81:87:16:
                    92:c5
                Exponent: 65537 (0x10001)
        X509v3 extensions:
            X509v3 Basic Constraints: 
                CA:FALSE
            Netscape Comment: 
                OpenSSL Generated Certificate
            X509v3 Subject Key Identifier: 
                5B:31:C1:61:C2:DF:EE:2F:1D:F7:84:57:B7:D2:3D:30:D5:CD:9D:AC
            X509v3 Authority Key Identifier: 
                keyid:73:30:9E:9D:57:82:BA:E2:D2:95:44:76:31:42:65:D8:1B:BB:D0:0C

    Signature Algorithm: sha1WithRSAEncryption
        56:e0:5a:d1:27:0f:31:0c:c6:95:a3:ba:49:58:a7:6a:1b:79:
        f5:30:67:50:67:b8:d5:d3:fe:eb:4c:04:a1:31:ea:43:3c:7a:
        0f:de:af:2c:c1:19:1f:d1:43:2e:75:ec:4e:11:28:ff:ae:e6:
        0b:51:e1:7b:d3:b7:21:01:71:f4:89:e5:6c:8d:65:9d:5e:60:
        ff:b1:e8:9b:4c:fd:da:7d:a8:46:f5:a5:24:90:79:49:28:f7:
        a2:8b:fb:8b:9a:a7:8e:21:e6:65:68:7c:2e:7a:b3:4e:5e:46:
        e9:67:06:33:68:7d:c1:ab:db:67:02:4a:1d:f2:f3:79:c8:a2:
        1f:ba:10:c4:ef:fd:91:64:7c:66:cd:5d:50:01:6e:ed:af:c7:
        0c:87:f5:91:d1:f3:e9:b3:a3:6d:99:d5:d1:01:b6:1f:c6:3f:
        7f:47:05:c6:a7:bb:a8:e1:7e:6c:90:c7:05:45:de:0c:6c:68:
        de:a5:da:82:e0:b7:6a:73:c0:93:44:74:8c:1b:31:e9:34:bc:
        03:6a:a1:94:bf:61:bc:af:f8:7f:a5:3d:60:4d:28:0b:63:9b:
        8f:de:fc:ce:83:eb:22:98:df:bd:f7:56:b5:74:02:91:2f:a5:
        7a:7a:dc:60:c9:e0:b6:20:7f:a2:a0:ae:d1:f6:57:ba:4d:e2:
        b9:a3:2a:4d
-----BEGIN CERTIFICATE-----
MIIEBjCCAu6gAwIBAgICAQIwDQYJKoZIhvcNAQEFBQAwgZMxCzAJBgNVBAYTAkFV
MRIwEAYDVQQIEwlBdXN0cmFsaWExFTATBgNVBAoTDEFQRWFnZXJzIEx0ZDEPMA0G
A1UECxMGUkRQLUdLMR8wHQYDVQQDExZBUEUtQ0EuYXBlYWdlcnMuY29tLmF1MScw
JQYJKoZIhvcNAQkBFhhpc3NhZG1pbkBhcGVhZ2Vycy5jb20uYXUwHhcNMTMwMzE5
MDQzNDU5WhcNMTQwMzE5MDQzNDU5WjB7MQswCQYDVQQGEwJBVTETMBEGA1UECAwK
UXVlZW5zbGFuZDESMBAGA1UEBwwJQXVzdHJhbGlhMRUwEwYDVQQKDAxBUEVhZ2Vy
cyBMdGQxDzANBgNVBAsMBlJEUC1HSzEbMBkGA1UEAwwSZ2suYXBlYWdlcnMuY29t
LmF1MIIBIjANBgkqhkiG9w0BAQEFAAOCAQ8AMIIBCgKCAQEAuMmhfcoBCsn2DUC1
7IH84PvAyS1Iv5r4rU97aDs0VmTaN5kYKiJQ4KQwf+fDQku6qIWO1g5tTJk/myxN
8atOkM+vKLUlK1YsK7hL/HHypcZXxRulZED2dgunfRJQliqAB2cXq3Aja5zvj0Yb
PB/TIGyG1iFkgNJvpf6YOFBA2wh0pcM1gFrPSo4vjjNvKAYIZRujDqzIAt28aW1y
JoQYezcF8RuDtRe0U3MabmGzdztMGUoCZacOnICZLNTk4SSGE/tXULa9Q29gk2J3
C0LoVsXXAB3UC74yha623YKhPnzjq/yJlBycgevn0hObmLh29MzfBKmM/6ZywE+B
hxaSxQIDAQABo3sweTAJBgNVHRMEAjAAMCwGCWCGSAGG+EIBDQQfFh1PcGVuU1NM
IEdlbmVyYXRlZCBDZXJ0aWZpY2F0ZTAdBgNVHQ4EFgQUWzHBYcLf7i8d94RXt9I9
MNXNnawwHwYDVR0jBBgwFoAUczCenVeCuuLSlUR2MUJl2Bu70AwwDQYJKoZIhvcN
AQEFBQADggEBAFbgWtEnDzEMxpWjuklYp2obefUwZ1BnuNXT/utMBKEx6kM8eg/e
ryzBGR/RQy517E4RKP+u5gtR4XvTtyEBcfSJ5WyNZZ1eYP+x6JtM/dp9qEb1pSSQ
eUko96KL+4uap44h5mVofC56s05eRulnBjNofcGr22cCSh3y83nIoh+6EMTv/ZFk
fGbNXVABbu2vxwyH9ZHR8+mzo22Z1dEBth/GP39HBcanu6jhfmyQxwVF3gxsaN6l
2oLgt2pzwJNEdIwbMek0vANqoZS/Ybyv+H+lPWBNKAtjm4/e/M6D6yKY3733VrV0
ApEvpXp63GDJ4LYgf6KgrtH2V7pN4rmjKk0=
-----END CERTIFICATE-----
