Certificate:
    Data:
        Version: 3 (0x2)
        Serial Number: 259 (0x103)
        Signature Algorithm: sha1WithRSAEncryption
        Issuer: C=AU, ST=Australia, O=APEagers Ltd, OU=RDP-GK, CN=APE-CA.apeagers.com.au/emailAddress=issadmin@apeagers.com.au
        Validity
            Not Before: Mar 19 04:42:37 2013 GMT
            Not After : Mar 19 04:42:37 2014 GMT
        Subject: C=AU, ST=Queensland, L=Australia, O=APEagers Ltd, OU=RDP-GK, CN=gk.apeagers.com.au
        Subject Public Key Info:
            Public Key Algorithm: rsaEncryption
            RSA Public Key: (2048 bit)
                Modulus (2048 bit):
                    00:b8:c9:a1:7d:ca:01:0a:c9:f6:0d:40:b5:ec:81:
                    fc:e0:fb:c0:c9:2d:48:bf:9a:f8:ad:4f:7b:68:3b:
                    34:56:64:da:37:99:18:2a:22:50:e0:a4:30:7f:e7:
                    c3:42:4b:ba:a8:85:8e:d6:0e:6d:4c:99:3f:9b:2c:
                    4d:f1:ab:4e:90:cf:af:28:b5:25:2b:56:2c:2b:b8:
                    4b:fc:71:f2:a5:c6:57:c5:1b:a5:64:40:f6:76:0b:
                    a7:7d:12:50:96:2a:80:07:67:17:ab:70:23:6b:9c:
                    ef:8f:46:1b:3c:1f:d3:20:6c:86:d6:21:64:80:d2:
                    6f:a5:fe:98:38:50:40:db:08:74:a5:c3:35:80:5a:
                    cf:4a:8e:2f:8e:33:6f:28:06:08:65:1b:a3:0e:ac:
                    c8:02:dd:bc:69:6d:72:26:84:18:7b:37:05:f1:1b:
                    83:b5:17:b4:53:73:1a:6e:61:b3:77:3b:4c:19:4a:
                    02:65:a7:0e:9c:80:99:2c:d4:e4:e1:24:86:13:fb:
                    57:50:b6:bd:43:6f:60:93:62:77:0b:42:e8:56:c5:
                    d7:00:1d:d4:0b:be:32:85:ae:b6:dd:82:a1:3e:7c:
                    e3:ab:fc:89:94:1c:9c:81:eb:e7:d2:13:9b:98:b8:
                    76:f4:cc:df:04:a9:8c:ff:a6:72:c0:4f:81:87:16:
                    92:c5
                Exponent: 65537 (0x10001)
        X509v3 extensions:
            X509v3 Basic Constraints: 
                CA:FALSE
            Netscape Cert Type: 
                SSL Server
            X509v3 Authority Key Identifier: 
                keyid:73:30:9E:9D:57:82:BA:E2:D2:95:44:76:31:42:65:D8:1B:BB:D0:0C
                DirName:/C=AU/ST=Australia/O=APEagers Ltd/OU=RDP-GK/CN=CA.apeagers.com.au/emailAddress=issadmin@apeagers.com.au
                serial:01:00

            X509v3 Extended Key Usage: critical
                TLS Web Server Authentication
    Signature Algorithm: sha1WithRSAEncryption
        8e:3d:00:a6:cc:d5:1c:13:ec:e0:03:5c:0b:7e:75:cb:4c:70:
        64:37:1d:dd:b5:06:0b:ef:a6:9b:fb:40:26:e0:c7:b9:89:6b:
        5e:72:86:f2:0d:0e:94:92:6f:c5:3f:6b:63:bd:d5:55:e3:62:
        f4:c0:98:47:0b:d9:36:d3:32:dc:e0:32:4b:cc:3b:62:48:87:
        e5:4d:bf:37:3b:dd:be:70:ab:9a:2c:b4:3a:c3:7e:bc:84:8c:
        b3:f8:cd:6e:23:1f:41:44:0a:ef:b5:4b:cc:a1:45:3c:95:2d:
        65:ea:50:c2:3a:4a:1b:95:be:65:55:47:f9:c9:84:6d:93:e0:
        6f:da:ee:03:6c:11:0f:cc:a5:d4:bb:20:d2:2c:af:25:21:49:
        32:b5:63:db:c3:59:26:c4:a9:97:3d:de:6d:91:05:ac:ce:62:
        aa:a9:f3:f7:4b:87:ce:65:a8:51:20:39:90:f7:9a:cf:3e:b2:
        51:5a:ee:dd:bc:c4:50:c3:ec:50:5f:26:31:ac:43:58:2c:7e:
        ff:94:a4:36:18:9a:c3:30:6d:44:95:93:6a:9f:5f:08:48:da:
        40:4b:9b:0b:c4:c1:3c:65:00:5d:a4:61:b7:3e:76:5a:01:bb:
        7d:4c:c4:a2:88:78:3f:1a:0f:26:65:0c:b3:e7:98:a9:91:63:
        cb:15:71:bd
-----BEGIN CERTIFICATE-----
MIIEhTCCA22gAwIBAgICAQMwDQYJKoZIhvcNAQEFBQAwgZMxCzAJBgNVBAYTAkFV
MRIwEAYDVQQIEwlBdXN0cmFsaWExFTATBgNVBAoTDEFQRWFnZXJzIEx0ZDEPMA0G
A1UECxMGUkRQLUdLMR8wHQYDVQQDExZBUEUtQ0EuYXBlYWdlcnMuY29tLmF1MScw
JQYJKoZIhvcNAQkBFhhpc3NhZG1pbkBhcGVhZ2Vycy5jb20uYXUwHhcNMTMwMzE5
MDQ0MjM3WhcNMTQwMzE5MDQ0MjM3WjB7MQswCQYDVQQGEwJBVTETMBEGA1UECAwK
UXVlZW5zbGFuZDESMBAGA1UEBwwJQXVzdHJhbGlhMRUwEwYDVQQKDAxBUEVhZ2Vy
cyBMdGQxDzANBgNVBAsMBlJEUC1HSzEbMBkGA1UEAwwSZ2suYXBlYWdlcnMuY29t
LmF1MIIBIjANBgkqhkiG9w0BAQEFAAOCAQ8AMIIBCgKCAQEAuMmhfcoBCsn2DUC1
7IH84PvAyS1Iv5r4rU97aDs0VmTaN5kYKiJQ4KQwf+fDQku6qIWO1g5tTJk/myxN
8atOkM+vKLUlK1YsK7hL/HHypcZXxRulZED2dgunfRJQliqAB2cXq3Aja5zvj0Yb
PB/TIGyG1iFkgNJvpf6YOFBA2wh0pcM1gFrPSo4vjjNvKAYIZRujDqzIAt28aW1y
JoQYezcF8RuDtRe0U3MabmGzdztMGUoCZacOnICZLNTk4SSGE/tXULa9Q29gk2J3
C0LoVsXXAB3UC74yha623YKhPnzjq/yJlBycgevn0hObmLh29MzfBKmM/6ZywE+B
hxaSxQIDAQABo4H5MIH2MAkGA1UdEwQCMAAwEQYJYIZIAYb4QgEBBAQDAgZAMIG9
BgNVHSMEgbUwgbKAFHMwnp1Xgrri0pVEdjFCZdgbu9AMoYGVpIGSMIGPMQswCQYD
VQQGEwJBVTESMBAGA1UECBMJQXVzdHJhbGlhMRUwEwYDVQQKEwxBUEVhZ2VycyBM
dGQxDzANBgNVBAsTBlJEUC1HSzEbMBkGA1UEAxMSQ0EuYXBlYWdlcnMuY29tLmF1
MScwJQYJKoZIhvcNAQkBFhhpc3NhZG1pbkBhcGVhZ2Vycy5jb20uYXWCAgEAMBYG
A1UdJQEB/wQMMAoGCCsGAQUFBwMBMA0GCSqGSIb3DQEBBQUAA4IBAQCOPQCmzNUc
E+zgA1wLfnXLTHBkNx3dtQYL76ab+0Am4Me5iWtecobyDQ6Ukm/FP2tjvdVV42L0
wJhHC9k20zLc4DJLzDtiSIflTb83O92+cKuaLLQ6w368hIyz+M1uIx9BRArvtUvM
oUU8lS1l6lDCOkoblb5lVUf5yYRtk+Bv2u4DbBEPzKXUuyDSLK8lIUkytWPbw1km
xKmXPd5tkQWszmKqqfP3S4fOZahRIDmQ95rPPrJRWu7dvMRQw+xQXyYxrENYLH7/
lKQ2GJrDMG1ElZNqn18ISNpAS5sLxME8ZQBdpGG3PnZaAbt9TMSiiHg/Gg8mZQyz
55ipkWPLFXG9
-----END CERTIFICATE-----
