Certificate:
    Data:
        Version: 3 (0x2)
        Serial Number: 260 (0x104)
        Signature Algorithm: sha1WithRSAEncryption
        Issuer: C=AU, ST=Australia, O=APEagers Ltd, OU=RDP-GK, CN=APE-CA.apeagers.com.au/emailAddress=issadmin@apeagers.com.au
        Validity
            Not Before: Mar 19 04:44:11 2013 GMT
            Not After : Mar 19 04:44:11 2014 GMT
        Subject: C=AU, ST=Queensland, L=Australia, O=APEagers Ltd, OU=RDP-GK, CN=gk.apeagers.com.au
        Subject Public Key Info:
            Public Key Algorithm: rsaEncryption
            RSA Public Key: (2048 bit)
                Modulus (2048 bit):
                    00:b8:c9:a1:7d:ca:01:0a:c9:f6:0d:40:b5:ec:81:
                    fc:e0:fb:c0:c9:2d:48:bf:9a:f8:ad:4f:7b:68:3b:
                    34:56:64:da:37:99:18:2a:22:50:e0:a4:30:7f:e7:
                    c3:42:4b:ba:a8:85:8e:d6:0e:6d:4c:99:3f:9b:2c:
                    4d:f1:ab:4e:90:cf:af:28:b5:25:2b:56:2c:2b:b8:
                    4b:fc:71:f2:a5:c6:57:c5:1b:a5:64:40:f6:76:0b:
                    a7:7d:12:50:96:2a:80:07:67:17:ab:70:23:6b:9c:
                    ef:8f:46:1b:3c:1f:d3:20:6c:86:d6:21:64:80:d2:
                    6f:a5:fe:98:38:50:40:db:08:74:a5:c3:35:80:5a:
                    cf:4a:8e:2f:8e:33:6f:28:06:08:65:1b:a3:0e:ac:
                    c8:02:dd:bc:69:6d:72:26:84:18:7b:37:05:f1:1b:
                    83:b5:17:b4:53:73:1a:6e:61:b3:77:3b:4c:19:4a:
                    02:65:a7:0e:9c:80:99:2c:d4:e4:e1:24:86:13:fb:
                    57:50:b6:bd:43:6f:60:93:62:77:0b:42:e8:56:c5:
                    d7:00:1d:d4:0b:be:32:85:ae:b6:dd:82:a1:3e:7c:
                    e3:ab:fc:89:94:1c:9c:81:eb:e7:d2:13:9b:98:b8:
                    76:f4:cc:df:04:a9:8c:ff:a6:72:c0:4f:81:87:16:
                    92:c5
                Exponent: 65537 (0x10001)
        X509v3 extensions:
            X509v3 Basic Constraints: 
                CA:FALSE
            Netscape Cert Type: 
                SSL Server
            X509v3 Authority Key Identifier: 
                keyid:73:30:9E:9D:57:82:BA:E2:D2:95:44:76:31:42:65:D8:1B:BB:D0:0C
                DirName:/C=AU/ST=Australia/O=APEagers Ltd/OU=RDP-GK/CN=CA.apeagers.com.au/emailAddress=issadmin@apeagers.com.au
                serial:01:00

            X509v3 Extended Key Usage: critical
                TLS Web Server Authentication, TLS Web Client Authentication
    Signature Algorithm: sha1WithRSAEncryption
        3d:d7:ae:04:ed:62:63:1d:4a:ac:a5:51:94:84:ec:27:9b:07:
        5e:dd:d9:57:cd:a1:6a:48:7b:64:aa:b7:b3:20:5d:5e:9f:ab:
        f0:10:63:1a:c4:54:42:db:50:66:2a:bc:14:82:c9:de:47:c0:
        5e:8a:59:be:7e:b8:ef:4b:4b:c4:b6:12:2f:81:70:bd:ad:08:
        8a:1e:b4:8e:ed:3d:34:a9:18:e0:d0:c3:70:bf:12:6a:bb:7d:
        9f:21:42:9f:c6:41:0f:84:74:b8:5d:42:d7:dd:c5:83:be:50:
        00:07:f2:05:10:41:88:1e:78:4b:40:bb:00:f0:62:fb:38:5d:
        d6:76:c7:43:6c:f0:27:1c:3f:f0:f3:a0:03:5a:3a:1e:31:42:
        a6:52:42:a4:f4:0e:31:6e:cc:cb:c8:5d:c2:90:28:a8:39:d3:
        68:cd:63:53:88:21:ec:88:40:95:ab:6a:b6:7e:90:00:00:ec:
        c0:46:6c:c0:1e:5d:65:56:35:ad:46:ae:5a:f8:e4:4f:03:f9:
        80:55:59:13:99:b4:06:1c:10:e9:6a:32:37:54:a8:ad:8b:62:
        1a:20:c9:06:9f:f2:46:10:f9:4f:e4:97:ea:c0:d6:70:38:38:
        4a:e9:a4:74:62:7b:0d:3c:a9:4f:5c:05:1b:2c:b6:00:f3:21:
        63:d8:46:f1
-----BEGIN CERTIFICATE-----
MIIEkTCCA3mgAwIBAgICAQQwDQYJKoZIhvcNAQEFBQAwgZMxCzAJBgNVBAYTAkFV
MRIwEAYDVQQIEwlBdXN0cmFsaWExFTATBgNVBAoTDEFQRWFnZXJzIEx0ZDEPMA0G
A1UECxMGUkRQLUdLMR8wHQYDVQQDExZBUEUtQ0EuYXBlYWdlcnMuY29tLmF1MScw
JQYJKoZIhvcNAQkBFhhpc3NhZG1pbkBhcGVhZ2Vycy5jb20uYXUwHhcNMTMwMzE5
MDQ0NDExWhcNMTQwMzE5MDQ0NDExWjB7MQswCQYDVQQGEwJBVTETMBEGA1UECAwK
UXVlZW5zbGFuZDESMBAGA1UEBwwJQXVzdHJhbGlhMRUwEwYDVQQKDAxBUEVhZ2Vy
cyBMdGQxDzANBgNVBAsMBlJEUC1HSzEbMBkGA1UEAwwSZ2suYXBlYWdlcnMuY29t
LmF1MIIBIjANBgkqhkiG9w0BAQEFAAOCAQ8AMIIBCgKCAQEAuMmhfcoBCsn2DUC1
7IH84PvAyS1Iv5r4rU97aDs0VmTaN5kYKiJQ4KQwf+fDQku6qIWO1g5tTJk/myxN
8atOkM+vKLUlK1YsK7hL/HHypcZXxRulZED2dgunfRJQliqAB2cXq3Aja5zvj0Yb
PB/TIGyG1iFkgNJvpf6YOFBA2wh0pcM1gFrPSo4vjjNvKAYIZRujDqzIAt28aW1y
JoQYezcF8RuDtRe0U3MabmGzdztMGUoCZacOnICZLNTk4SSGE/tXULa9Q29gk2J3
C0LoVsXXAB3UC74yha623YKhPnzjq/yJlBycgevn0hObmLh29MzfBKmM/6ZywE+B
hxaSxQIDAQABo4IBBDCCAQAwCQYDVR0TBAIwADARBglghkgBhvhCAQEEBAMCBkAw
gb0GA1UdIwSBtTCBsoAUczCenVeCuuLSlUR2MUJl2Bu70AyhgZWkgZIwgY8xCzAJ
BgNVBAYTAkFVMRIwEAYDVQQIEwlBdXN0cmFsaWExFTATBgNVBAoTDEFQRWFnZXJz
IEx0ZDEPMA0GA1UECxMGUkRQLUdLMRswGQYDVQQDExJDQS5hcGVhZ2Vycy5jb20u
YXUxJzAlBgkqhkiG9w0BCQEWGGlzc2FkbWluQGFwZWFnZXJzLmNvbS5hdYICAQAw
IAYDVR0lAQH/BBYwFAYIKwYBBQUHAwEGCCsGAQUFBwMCMA0GCSqGSIb3DQEBBQUA
A4IBAQA9164E7WJjHUqspVGUhOwnmwde3dlXzaFqSHtkqrezIF1en6vwEGMaxFRC
21BmKrwUgsneR8Beilm+frjvS0vEthIvgXC9rQiKHrSO7T00qRjg0MNwvxJqu32f
IUKfxkEPhHS4XULX3cWDvlAAB/IFEEGIHnhLQLsA8GL7OF3WdsdDbPAnHD/w86AD
WjoeMUKmUkKk9A4xbszLyF3CkCioOdNozWNTiCHsiECVq2q2fpAAAOzARmzAHl1l
VjWtRq5a+ORPA/mAVVkTmbQGHBDpajI3VKiti2IaIMkGn/JGEPlP5JfqwNZwODhK
6aR0YnsNPKlPXAUbLLYA8yFj2Ebx
-----END CERTIFICATE-----
