Certificate:
    Data:
        Version: 3 (0x2)
        Serial Number: 261 (0x105)
        Signature Algorithm: sha1WithRSAEncryption
        Issuer: C=AU, ST=Australia, O=APEagers Ltd, OU=RDP-GK, CN=APE-CA.apeagers.com.au/emailAddress=issadmin@apeagers.com.au
        Validity
            Not Before: Mar 19 05:51:30 2013 GMT
            Not After : Mar 19 05:51:30 2014 GMT
        Subject: C=AU, ST=Queensland, L=Australia, O=APEagers Ltd, OU=RDP-GK, CN=gk.apeagers.com.au
        Subject Public Key Info:
            Public Key Algorithm: rsaEncryption
            RSA Public Key: (2048 bit)
                Modulus (2048 bit):
                    00:b8:c9:a1:7d:ca:01:0a:c9:f6:0d:40:b5:ec:81:
                    fc:e0:fb:c0:c9:2d:48:bf:9a:f8:ad:4f:7b:68:3b:
                    34:56:64:da:37:99:18:2a:22:50:e0:a4:30:7f:e7:
                    c3:42:4b:ba:a8:85:8e:d6:0e:6d:4c:99:3f:9b:2c:
                    4d:f1:ab:4e:90:cf:af:28:b5:25:2b:56:2c:2b:b8:
                    4b:fc:71:f2:a5:c6:57:c5:1b:a5:64:40:f6:76:0b:
                    a7:7d:12:50:96:2a:80:07:67:17:ab:70:23:6b:9c:
                    ef:8f:46:1b:3c:1f:d3:20:6c:86:d6:21:64:80:d2:
                    6f:a5:fe:98:38:50:40:db:08:74:a5:c3:35:80:5a:
                    cf:4a:8e:2f:8e:33:6f:28:06:08:65:1b:a3:0e:ac:
                    c8:02:dd:bc:69:6d:72:26:84:18:7b:37:05:f1:1b:
                    83:b5:17:b4:53:73:1a:6e:61:b3:77:3b:4c:19:4a:
                    02:65:a7:0e:9c:80:99:2c:d4:e4:e1:24:86:13:fb:
                    57:50:b6:bd:43:6f:60:93:62:77:0b:42:e8:56:c5:
                    d7:00:1d:d4:0b:be:32:85:ae:b6:dd:82:a1:3e:7c:
                    e3:ab:fc:89:94:1c:9c:81:eb:e7:d2:13:9b:98:b8:
                    76:f4:cc:df:04:a9:8c:ff:a6:72:c0:4f:81:87:16:
                    92:c5
                Exponent: 65537 (0x10001)
        X509v3 extensions:
            X509v3 Basic Constraints: 
                CA:FALSE
            X509v3 Authority Key Identifier: 
                keyid:73:30:9E:9D:57:82:BA:E2:D2:95:44:76:31:42:65:D8:1B:BB:D0:0C
                DirName:/C=AU/ST=Australia/O=APEagers Ltd/OU=RDP-GK/CN=CA.apeagers.com.au/emailAddress=issadmin@apeagers.com.au
                serial:01:00

            X509v3 Key Usage: critical
                Digital Signature, Key Encipherment
            X509v3 Extended Key Usage: critical
                TLS Web Server Authentication, TLS Web Client Authentication
            Authority Information Access: 
                CA Issuers - URI:http://www.apeagers.com.au/

    Signature Algorithm: sha1WithRSAEncryption
        14:59:03:3f:99:7c:55:bb:0b:1e:88:8c:ea:8e:7a:bc:16:c2:
        b5:8f:6d:df:35:97:f5:d3:ba:4a:33:8f:d3:58:3e:c8:e0:41:
        e0:c9:7b:0a:38:fd:3c:e0:c7:60:e7:ec:e7:1a:cc:84:0c:04:
        1f:76:01:94:2a:15:1e:76:20:46:f2:4b:66:d2:10:ff:21:1c:
        72:37:67:6c:99:67:17:f9:f3:bc:25:72:51:a1:b7:bd:97:45:
        f7:48:26:3b:19:38:e6:06:69:55:3d:92:dc:39:7c:c8:b7:fe:
        ea:cd:cf:6b:88:46:e7:d2:a3:63:0e:77:de:f7:c1:6e:4d:8f:
        03:d4:7c:47:50:20:a3:22:d2:5d:6f:0f:7e:9c:ff:be:70:a4:
        57:00:8c:d9:c9:2e:a9:a4:63:9d:25:0d:94:64:48:77:24:20:
        1f:ce:4e:52:73:c6:9a:06:7d:1e:07:cd:e7:72:af:0a:f8:58:
        7b:a3:31:c0:a8:d9:64:fe:c1:5b:07:2c:45:09:c6:0a:1c:72:
        91:ae:2a:88:ed:de:1c:74:18:32:f0:29:83:81:6c:ac:5b:15:
        e1:20:72:3d:ce:5c:9f:55:5b:3f:4a:94:37:37:95:11:d0:1c:
        1b:0c:7f:8d:07:08:33:46:3e:4d:08:a3:19:97:79:af:65:e9:
        c7:21:75:df
-----BEGIN CERTIFICATE-----
MIIExzCCA6+gAwIBAgICAQUwDQYJKoZIhvcNAQEFBQAwgZMxCzAJBgNVBAYTAkFV
MRIwEAYDVQQIEwlBdXN0cmFsaWExFTATBgNVBAoTDEFQRWFnZXJzIEx0ZDEPMA0G
A1UECxMGUkRQLUdLMR8wHQYDVQQDExZBUEUtQ0EuYXBlYWdlcnMuY29tLmF1MScw
JQYJKoZIhvcNAQkBFhhpc3NhZG1pbkBhcGVhZ2Vycy5jb20uYXUwHhcNMTMwMzE5
MDU1MTMwWhcNMTQwMzE5MDU1MTMwWjB7MQswCQYDVQQGEwJBVTETMBEGA1UECAwK
UXVlZW5zbGFuZDESMBAGA1UEBwwJQXVzdHJhbGlhMRUwEwYDVQQKDAxBUEVhZ2Vy
cyBMdGQxDzANBgNVBAsMBlJEUC1HSzEbMBkGA1UEAwwSZ2suYXBlYWdlcnMuY29t
LmF1MIIBIjANBgkqhkiG9w0BAQEFAAOCAQ8AMIIBCgKCAQEAuMmhfcoBCsn2DUC1
7IH84PvAyS1Iv5r4rU97aDs0VmTaN5kYKiJQ4KQwf+fDQku6qIWO1g5tTJk/myxN
8atOkM+vKLUlK1YsK7hL/HHypcZXxRulZED2dgunfRJQliqAB2cXq3Aja5zvj0Yb
PB/TIGyG1iFkgNJvpf6YOFBA2wh0pcM1gFrPSo4vjjNvKAYIZRujDqzIAt28aW1y
JoQYezcF8RuDtRe0U3MabmGzdztMGUoCZacOnICZLNTk4SSGE/tXULa9Q29gk2J3
C0LoVsXXAB3UC74yha623YKhPnzjq/yJlBycgevn0hObmLh29MzfBKmM/6ZywE+B
hxaSxQIDAQABo4IBOjCCATYwCQYDVR0TBAIwADCBvQYDVR0jBIG1MIGygBRzMJ6d
V4K64tKVRHYxQmXYG7vQDKGBlaSBkjCBjzELMAkGA1UEBhMCQVUxEjAQBgNVBAgT
CUF1c3RyYWxpYTEVMBMGA1UEChMMQVBFYWdlcnMgTHRkMQ8wDQYDVQQLEwZSRFAt
R0sxGzAZBgNVBAMTEkNBLmFwZWFnZXJzLmNvbS5hdTEnMCUGCSqGSIb3DQEJARYY
aXNzYWRtaW5AYXBlYWdlcnMuY29tLmF1ggIBADAOBgNVHQ8BAf8EBAMCBaAwIAYD
VR0lAQH/BBYwFAYIKwYBBQUHAwEGCCsGAQUFBwMCMDcGCCsGAQUFBwEBBCswKTAn
BggrBgEFBQcwAoYbaHR0cDovL3d3dy5hcGVhZ2Vycy5jb20uYXUvMA0GCSqGSIb3
DQEBBQUAA4IBAQAUWQM/mXxVuwseiIzqjnq8FsK1j23fNZf107pKM4/TWD7I4EHg
yXsKOP084Mdg5+znGsyEDAQfdgGUKhUediBG8ktm0hD/IRxyN2dsmWcX+fO8JXJR
obe9l0X3SCY7GTjmBmlVPZLcOXzIt/7qzc9riEbn0qNjDnfe98FuTY8D1HxHUCCj
ItJdbw9+nP++cKRXAIzZyS6ppGOdJQ2UZEh3JCAfzk5Sc8aaBn0eB83ncq8K+Fh7
ozHAqNlk/sFbByxFCcYKHHKRriqI7d4cdBgy8CmDgWysWxXhIHI9zlyfVVs/SpQ3
N5UR0BwbDH+NBwgzRj5NCKMZl3mvZenHIXXf
-----END CERTIFICATE-----
-----BEGIN RSA PRIVATE KEY-----
Proc-Type: 4,ENCRYPTED
DEK-Info: DES-EDE3-CBC,09623C6E3A1DF5C3

NSn/YyMBvEKiR9zBdnlbN8K5edtsYIgPTUk5tS7eJs3xV1Dui1xMFBub5rIjHCX2
ZC38d4d+lHVYTDzIo95uVOpWn+EWvSj0meoRhiqBxkMUDtBXfm7PcADiaE0OfMLp
6KQscXQUQcffpF3CKUD1rcgcDhWVS7TneMy2BngSbzKxhCp3p3gx88/2L89eF7oB
MlRshkauN+UbuejS7lgvdN5ITVIWw5UskrDlgeUt3mt1JGp/eArGn00uHxq6543W
gBDLcShQo14KoVH94aIN7BGarPTiJDeFbY7XQi7jDTJNanbwLI68NgjMGDymSxTC
u/2f9WLEZ6J0Y9I+F3rkgRw+e3wgq3Du9Fb+eMSAwlVmdMUvOcmn3XjvV9SreqTQ
m3Gbm2/ag2yqsLTPZOmfNlmYfu54UO/0l4tfSoi7pJ7Ul54VVl2RO3MjjfRYQ+qr
QXnJYIl0WVBhI5mu3p6ie6Ix6mNltq/Jng4Fh9/dvbWyYZWhhqH332Kb/6C+d730
S/QFcri1QF22LbnFXwujc0FYd/2AJothBbgHg79mqd5b0RlIW3gz/iEQSaPOFy5x
xYtRvTwjgb4Z2NLUedHddA4TPIstV4xe2k5ev8bIKsnsGJcpwyVGMsmlY0FNHrlW
6UHHkjmNA+P2PxNWkC8EXIw0/KeaC9Ju16ocX2T/ILLABHA2NP04vP6/5zr5KOke
B2yHb3kDUfBnPLvrUDpP3dAlyCojhF/ioxRFZ4aMcyzuOq28t5TbsRU3d58vDA+r
l/ZthED0QuJCQ9nnOaZ/m1AhjCNFCS0LQWqu/ZCfnS7Qlq1GDCbUN3fi9wHfjR11
7jaJS0cCZih28RfO723WfHU/ayLkOAbfj2Xo26FefegpROXro6LK89zAPWrYgw2T
1sbvBmZ3Iu+CZkVcLu76Ap/eBkdh7uE1V3etOHwhBhAEDa9DFZwsMiq63aWn7L6R
8Qggf54y0xZKG70FZFVXdc7LNBEiRMcqkQaglTU1qMX05lCZhm2GvE1HewTozDwu
maRx/7BEkBSvoNLQSzZWv+8RuCvFIxr+UsHTf79mzvFRYf9aCYFJadJKyHeJVnwg
yAdiA8uHOHkMMHXG8v8uZOfUmiFgGFlnvw6rNJrx0nJPq2QG4pf3w7id6bsinKg3
UT29lysALX8s5Ef5f3xIpvT8GJScPoScUDaFi4E7Hr5sKqu3DLbL77FR65clnUx/
gottQBSUO6aJUDSpwHeF3IEgsd3Uyrnx+A8rY5quoTQuvFPzVCUELwOyx6Jugf4i
NFa4kSEScUJrlYzbLjTcxutNsBCkCQxNZN+9HFppfsCICEMjpk33rh/DsTcvxFdn
SkfcyajgZscU5Waxpiz7I1mlPdskEMTLu+nZOMl3PwTfKn0hjKq4XlVOkw8lSu1Q
2aBSZwkWZfG4SGLVu3QaVVZPP1mO3xEtzMvxqnZmsfogXI2ATkQnlGC+iCtxJv7o
zMmMhX6VjoThilMO4/azAwCyCSbt3L/DI+PSQXiHlvIIFEBv8lKSKLjh9Hqvsa6Q
cuu2zaogABna4X9PY33FAfMat6DfXv+QUaH4puF8FShdjGjg9/zdfl1rk/z7n3LP
-----END RSA PRIVATE KEY-----
