Certificate:
    Data:
        Version: 3 (0x2)
        Serial Number: 256 (0x100)
        Signature Algorithm: sha1WithRSAEncryption
        Issuer: C=AU, ST=Australia, O=APEagers Ltd, OU=RDP-GK, CN=APE-CA.apeagers.com.au/emailAddress=issadmin@apeagers.com.au
        Validity
            Not Before: Mar 20 10:19:05 2013 GMT
            Not After : Mar 20 10:19:05 2014 GMT
        Subject: C=AU, ST=Queensland, L=Australia, O=APEagers Ltd, OU=RDP-GK, CN=gk.apeagers.com.au
        Subject Public Key Info:
            Public Key Algorithm: rsaEncryption
            RSA Public Key: (2048 bit)
                Modulus (2048 bit):
                    00:b8:c9:a1:7d:ca:01:0a:c9:f6:0d:40:b5:ec:81:
                    fc:e0:fb:c0:c9:2d:48:bf:9a:f8:ad:4f:7b:68:3b:
                    34:56:64:da:37:99:18:2a:22:50:e0:a4:30:7f:e7:
                    c3:42:4b:ba:a8:85:8e:d6:0e:6d:4c:99:3f:9b:2c:
                    4d:f1:ab:4e:90:cf:af:28:b5:25:2b:56:2c:2b:b8:
                    4b:fc:71:f2:a5:c6:57:c5:1b:a5:64:40:f6:76:0b:
                    a7:7d:12:50:96:2a:80:07:67:17:ab:70:23:6b:9c:
                    ef:8f:46:1b:3c:1f:d3:20:6c:86:d6:21:64:80:d2:
                    6f:a5:fe:98:38:50:40:db:08:74:a5:c3:35:80:5a:
                    cf:4a:8e:2f:8e:33:6f:28:06:08:65:1b:a3:0e:ac:
                    c8:02:dd:bc:69:6d:72:26:84:18:7b:37:05:f1:1b:
                    83:b5:17:b4:53:73:1a:6e:61:b3:77:3b:4c:19:4a:
                    02:65:a7:0e:9c:80:99:2c:d4:e4:e1:24:86:13:fb:
                    57:50:b6:bd:43:6f:60:93:62:77:0b:42:e8:56:c5:
                    d7:00:1d:d4:0b:be:32:85:ae:b6:dd:82:a1:3e:7c:
                    e3:ab:fc:89:94:1c:9c:81:eb:e7:d2:13:9b:98:b8:
                    76:f4:cc:df:04:a9:8c:ff:a6:72:c0:4f:81:87:16:
                    92:c5
                Exponent: 65537 (0x10001)
        X509v3 extensions:
            X509v3 Basic Constraints: 
                CA:FALSE
            Netscape Comment: 
                OpenSSL Generated Certificate
            X509v3 Subject Key Identifier: 
                5B:31:C1:61:C2:DF:EE:2F:1D:F7:84:57:B7:D2:3D:30:D5:CD:9D:AC
            X509v3 Authority Key Identifier: 
                keyid:3A:DF:F9:12:FA:42:22:C8:C1:2E:D1:4A:D7:82:51:9F:0B:A4:CC:36

    Signature Algorithm: sha1WithRSAEncryption
        32:5d:d5:b7:9a:ab:05:ea:be:50:24:33:1d:69:f8:b2:4e:6d:
        51:8e:e9:0f:82:1f:ed:ac:78:4b:fa:33:b9:b8:53:3d:94:82:
        81:70:77:82:54:09:74:09:ec:8f:83:0d:60:70:fe:61:c5:43:
        83:d2:37:92:96:c7:f0:75:9c:55:84:c2:ff:43:a7:8b:e5:ab:
        8c:a6:43:7b:1d:d2:b8:64:f1:aa:cc:c6:8d:7e:cb:35:40:12:
        58:ef:35:55:0b:5f:fa:8d:e7:3c:99:89:3a:fd:a7:41:00:95:
        89:1d:d5:2a:ea:6d:38:7a:ef:68:b0:a9:ad:c8:dd:0f:3a:74:
        14:67:19:06:99:21:b7:c9:9b:e1:93:8c:05:14:09:83:2f:45:
        be:4e:d3:fb:17:e8:97:59:5c:4e:d5:05:3c:f7:d0:81:16:81:
        db:60:6b:83:81:b1:e5:22:6f:30:53:a3:9f:00:50:4c:c2:4b:
        43:a8:55:3a:46:d0:93:4d:5e:d8:ea:6e:ff:c9:d1:55:31:65:
        6b:73:1d:e4:88:c7:27:d5:33:33:42:60:9b:46:1d:ed:52:7e:
        25:ee:7c:4f:58:c1:77:be:36:56:26:99:a6:05:15:69:54:11:
        d9:91:84:4c:9d:95:e6:9c:ce:50:08:be:2b:0f:33:89:16:cd:
        d5:1b:6e:55
-----BEGIN CERTIFICATE-----
MIIEBjCCAu6gAwIBAgICAQAwDQYJKoZIhvcNAQEFBQAwgZMxCzAJBgNVBAYTAkFV
MRIwEAYDVQQIEwlBdXN0cmFsaWExFTATBgNVBAoTDEFQRWFnZXJzIEx0ZDEPMA0G
A1UECxMGUkRQLUdLMR8wHQYDVQQDExZBUEUtQ0EuYXBlYWdlcnMuY29tLmF1MScw
JQYJKoZIhvcNAQkBFhhpc3NhZG1pbkBhcGVhZ2Vycy5jb20uYXUwHhcNMTMwMzIw
MTAxOTA1WhcNMTQwMzIwMTAxOTA1WjB7MQswCQYDVQQGEwJBVTETMBEGA1UECAwK
UXVlZW5zbGFuZDESMBAGA1UEBwwJQXVzdHJhbGlhMRUwEwYDVQQKDAxBUEVhZ2Vy
cyBMdGQxDzANBgNVBAsMBlJEUC1HSzEbMBkGA1UEAwwSZ2suYXBlYWdlcnMuY29t
LmF1MIIBIjANBgkqhkiG9w0BAQEFAAOCAQ8AMIIBCgKCAQEAuMmhfcoBCsn2DUC1
7IH84PvAyS1Iv5r4rU97aDs0VmTaN5kYKiJQ4KQwf+fDQku6qIWO1g5tTJk/myxN
8atOkM+vKLUlK1YsK7hL/HHypcZXxRulZED2dgunfRJQliqAB2cXq3Aja5zvj0Yb
PB/TIGyG1iFkgNJvpf6YOFBA2wh0pcM1gFrPSo4vjjNvKAYIZRujDqzIAt28aW1y
JoQYezcF8RuDtRe0U3MabmGzdztMGUoCZacOnICZLNTk4SSGE/tXULa9Q29gk2J3
C0LoVsXXAB3UC74yha623YKhPnzjq/yJlBycgevn0hObmLh29MzfBKmM/6ZywE+B
hxaSxQIDAQABo3sweTAJBgNVHRMEAjAAMCwGCWCGSAGG+EIBDQQfFh1PcGVuU1NM
IEdlbmVyYXRlZCBDZXJ0aWZpY2F0ZTAdBgNVHQ4EFgQUWzHBYcLf7i8d94RXt9I9
MNXNnawwHwYDVR0jBBgwFoAUOt/5EvpCIsjBLtFK14JRnwukzDYwDQYJKoZIhvcN
AQEFBQADggEBADJd1beaqwXqvlAkMx1p+LJObVGO6Q+CH+2seEv6M7m4Uz2UgoFw
d4JUCXQJ7I+DDWBw/mHFQ4PSN5KWx/B1nFWEwv9Dp4vlq4ymQ3sd0rhk8arMxo1+
yzVAEljvNVULX/qN5zyZiTr9p0EAlYkd1SrqbTh672iwqa3I3Q86dBRnGQaZIbfJ
m+GTjAUUCYMvRb5O0/sX6JdZXE7VBTz30IEWgdtga4OBseUibzBTo58AUEzCS0Oo
VTpG0JNNXtjqbv/J0VUxZWtzHeSIxyfVMzNCYJtGHe1SfiXufE9YwXe+NlYmmaYF
FWlUEdmRhEydleaczlAIvisPM4kWzdUbblU=
-----END CERTIFICATE-----
