Certificate:
    Data:
        Version: 3 (0x2)
        Serial Number: 257 (0x101)
        Signature Algorithm: sha1WithRSAEncryption
        Issuer: C=AU, ST=Queensland, L=Australia, O=APEagers Ltd, OU=RDP-GK, CN=gk.apeagers.com.au
        Validity
            Not Before: Mar 20 10:30:39 2013 GMT
            Not After : Mar 20 10:30:39 2014 GMT
        Subject: C=AU, ST=Queensland, L=Australia, O=APEagers Ltd, OU=RDP-GK, CN=gk.apeagers.com.au
        Subject Public Key Info:
            Public Key Algorithm: rsaEncryption
            RSA Public Key: (2048 bit)
                Modulus (2048 bit):
                    00:d8:74:de:cb:7c:3d:90:32:3f:c3:d4:19:e5:fa:
                    9b:cb:75:c3:92:6f:db:27:cf:f4:b8:b5:27:e8:5a:
                    a2:64:d0:8d:94:ec:22:c3:40:cf:de:8e:7b:68:df:
                    19:42:35:d1:d3:95:61:13:05:e8:a1:3a:ff:ee:6b:
                    fc:3d:d7:aa:b4:c2:42:ea:9f:97:c5:a8:b0:05:93:
                    dc:a9:25:32:8c:64:8f:b4:8d:05:15:ca:fd:30:06:
                    26:39:12:86:f1:5c:d0:e0:ce:21:ee:09:1d:3a:8d:
                    1a:ee:01:27:b8:03:de:6a:ac:8d:57:8f:9b:ba:74:
                    3b:e7:ba:50:1b:20:ec:db:ec:8e:98:b4:32:06:93:
                    39:b8:33:96:8a:8f:04:f3:1b:d6:b5:8e:90:e2:29:
                    73:71:12:6a:57:39:5b:49:37:06:85:50:7d:9f:2d:
                    ef:ba:4f:ad:c2:ed:2d:a7:18:76:50:e0:4c:17:de:
                    fc:7d:f9:e8:7d:fb:75:7a:99:32:d5:bd:52:37:22:
                    da:50:c4:5b:89:cb:24:e6:4f:eb:29:94:11:6b:fc:
                    e9:fd:b8:83:f9:38:8a:54:06:b0:11:a6:ee:7d:e6:
                    d5:4b:73:4e:5d:b9:88:97:02:b8:ab:23:d1:a4:e7:
                    a6:6e:c9:25:98:a1:00:95:11:73:05:0c:25:03:04:
                    9f:05
                Exponent: 65537 (0x10001)
        X509v3 extensions:
            X509v3 Basic Constraints: 
                CA:FALSE
            Netscape Comment: 
                OpenSSL Generated Certificate
            X509v3 Subject Key Identifier: 
                3A:DF:F9:12:FA:42:22:C8:C1:2E:D1:4A:D7:82:51:9F:0B:A4:CC:36
            X509v3 Authority Key Identifier: 
                keyid:3A:DF:F9:12:FA:42:22:C8:C1:2E:D1:4A:D7:82:51:9F:0B:A4:CC:36

    Signature Algorithm: sha1WithRSAEncryption
        a4:d5:48:77:58:aa:a9:eb:e8:c0:76:b9:f8:a9:ca:50:66:53:
        46:c5:87:ea:00:cc:c5:af:39:80:2a:08:6a:2d:73:cd:fe:dd:
        3e:e4:6a:2e:8c:32:8a:43:82:52:f5:da:72:34:02:49:5d:c9:
        83:0b:1e:6d:96:97:96:d7:53:dd:8a:7b:e7:aa:5b:5e:3b:1f:
        16:16:b0:0a:bf:f0:20:c8:3c:f5:8f:f7:33:2b:5f:18:aa:a9:
        57:5c:49:b8:f1:ea:36:a0:f4:47:6a:4f:54:23:0f:c6:8a:ab:
        5b:5d:99:73:c1:85:74:00:4b:cc:07:82:b9:0d:f9:bd:3b:76:
        da:0d:17:42:98:20:ac:b3:5e:04:f1:b3:69:e6:c1:34:c6:b7:
        dd:c0:be:ba:d0:e9:19:df:40:8e:58:3f:ec:be:66:8f:96:82:
        56:9a:9f:a7:64:22:e8:bf:4c:37:05:96:02:1b:cd:1d:6f:9d:
        ed:d6:3a:70:1d:0c:e2:df:fd:dd:b2:87:c9:c1:0c:95:ce:bf:
        f6:12:b7:fb:73:43:a0:8f:8e:b7:31:3b:16:15:91:27:3d:2a:
        fc:de:59:c0:05:5e:82:f8:9c:68:d1:10:c9:33:19:b4:b5:03:
        f8:23:a2:0e:55:50:f4:26:5c:4d:3d:a0:f8:3c:17:29:e9:d1:
        b7:d1:6a:3a
-----BEGIN CERTIFICATE-----
MIID7TCCAtWgAwIBAgICAQEwDQYJKoZIhvcNAQEFBQAwezELMAkGA1UEBhMCQVUx
EzARBgNVBAgMClF1ZWVuc2xhbmQxEjAQBgNVBAcMCUF1c3RyYWxpYTEVMBMGA1UE
CgwMQVBFYWdlcnMgTHRkMQ8wDQYDVQQLDAZSRFAtR0sxGzAZBgNVBAMMEmdrLmFw
ZWFnZXJzLmNvbS5hdTAeFw0xMzAzMjAxMDMwMzlaFw0xNDAzMjAxMDMwMzlaMHsx
CzAJBgNVBAYTAkFVMRMwEQYDVQQIDApRdWVlbnNsYW5kMRIwEAYDVQQHDAlBdXN0
cmFsaWExFTATBgNVBAoMDEFQRWFnZXJzIEx0ZDEPMA0GA1UECwwGUkRQLUdLMRsw
GQYDVQQDDBJnay5hcGVhZ2Vycy5jb20uYXUwggEiMA0GCSqGSIb3DQEBAQUAA4IB
DwAwggEKAoIBAQDYdN7LfD2QMj/D1Bnl+pvLdcOSb9snz/S4tSfoWqJk0I2U7CLD
QM/ejnto3xlCNdHTlWETBeihOv/ua/w916q0wkLqn5fFqLAFk9ypJTKMZI+0jQUV
yv0wBiY5EobxXNDgziHuCR06jRruASe4A95qrI1Xj5u6dDvnulAbIOzb7I6YtDIG
kzm4M5aKjwTzG9a1jpDiKXNxEmpXOVtJNwaFUH2fLe+6T63C7S2nGHZQ4EwX3vx9
+eh9+3V6mTLVvVI3ItpQxFuJyyTmT+splBFr/On9uIP5OIpUBrARpu595tVLc05d
uYiXArirI9Gk56ZuySWYoQCVEXMFDCUDBJ8FAgMBAAGjezB5MAkGA1UdEwQCMAAw
LAYJYIZIAYb4QgENBB8WHU9wZW5TU0wgR2VuZXJhdGVkIENlcnRpZmljYXRlMB0G
A1UdDgQWBBQ63/kS+kIiyMEu0UrXglGfC6TMNjAfBgNVHSMEGDAWgBQ63/kS+kIi
yMEu0UrXglGfC6TMNjANBgkqhkiG9w0BAQUFAAOCAQEApNVId1iqqevowHa5+KnK
UGZTRsWH6gDMxa85gCoIai1zzf7dPuRqLowyikOCUvXacjQCSV3JgwsebZaXltdT
3Yp756pbXjsfFhawCr/wIMg89Y/3MytfGKqpV1xJuPHqNqD0R2pPVCMPxoqrW12Z
c8GFdABLzAeCuQ35vTt22g0XQpggrLNeBPGzaebBNMa33cC+utDpGd9Ajlg/7L5m
j5aCVpqfp2Qi6L9MNwWWAhvNHW+d7dY6cB0M4t/93bKHycEMlc6/9hK3+3NDoI+O
tzE7FhWRJz0q/N5ZwAVegvicaNEQyTMZtLUD+COiDlVQ9CZcTT2g+DwXKenRt9Fq
Og==
-----END CERTIFICATE-----
