Certificate:
    Data:
        Version: 3 (0x2)
        Serial Number: 258 (0x102)
        Signature Algorithm: sha1WithRSAEncryption
        Issuer: C=AU, ST=Queensland, L=Australia, O=APEagers Ltd, OU=RDP-GK, CN=gk.apeagers.com.au
        Validity
            Not Before: Mar 20 23:12:39 2013 GMT
            Not After : Mar 20 23:12:39 2014 GMT
        Subject: C=AU, ST=Queensland, L=Australia, O=APEagers Ltd, OU=RDP-GK, CN=gk.apeagers.com.au
        Subject Public Key Info:
            Public Key Algorithm: rsaEncryption
            RSA Public Key: (2048 bit)
                Modulus (2048 bit):
                    00:d8:74:de:cb:7c:3d:90:32:3f:c3:d4:19:e5:fa:
                    9b:cb:75:c3:92:6f:db:27:cf:f4:b8:b5:27:e8:5a:
                    a2:64:d0:8d:94:ec:22:c3:40:cf:de:8e:7b:68:df:
                    19:42:35:d1:d3:95:61:13:05:e8:a1:3a:ff:ee:6b:
                    fc:3d:d7:aa:b4:c2:42:ea:9f:97:c5:a8:b0:05:93:
                    dc:a9:25:32:8c:64:8f:b4:8d:05:15:ca:fd:30:06:
                    26:39:12:86:f1:5c:d0:e0:ce:21:ee:09:1d:3a:8d:
                    1a:ee:01:27:b8:03:de:6a:ac:8d:57:8f:9b:ba:74:
                    3b:e7:ba:50:1b:20:ec:db:ec:8e:98:b4:32:06:93:
                    39:b8:33:96:8a:8f:04:f3:1b:d6:b5:8e:90:e2:29:
                    73:71:12:6a:57:39:5b:49:37:06:85:50:7d:9f:2d:
                    ef:ba:4f:ad:c2:ed:2d:a7:18:76:50:e0:4c:17:de:
                    fc:7d:f9:e8:7d:fb:75:7a:99:32:d5:bd:52:37:22:
                    da:50:c4:5b:89:cb:24:e6:4f:eb:29:94:11:6b:fc:
                    e9:fd:b8:83:f9:38:8a:54:06:b0:11:a6:ee:7d:e6:
                    d5:4b:73:4e:5d:b9:88:97:02:b8:ab:23:d1:a4:e7:
                    a6:6e:c9:25:98:a1:00:95:11:73:05:0c:25:03:04:
                    9f:05
                Exponent: 65537 (0x10001)
        X509v3 extensions:
            X509v3 Basic Constraints: 
                CA:FALSE
            Netscape Comment: 
                OpenSSL Generated Certificate
            X509v3 Subject Key Identifier: 
                3A:DF:F9:12:FA:42:22:C8:C1:2E:D1:4A:D7:82:51:9F:0B:A4:CC:36
            X509v3 Authority Key Identifier: 
                keyid:3A:DF:F9:12:FA:42:22:C8:C1:2E:D1:4A:D7:82:51:9F:0B:A4:CC:36

    Signature Algorithm: sha1WithRSAEncryption
        4b:23:31:b5:43:a4:87:1f:5c:5c:ce:71:60:2c:ca:90:12:75:
        23:26:1d:9d:2d:f2:f4:a3:25:0b:fb:8b:f5:0d:11:f0:19:62:
        c9:dd:e1:88:34:35:72:28:da:08:7f:21:b2:c0:4a:9c:a8:1d:
        bb:33:0f:7d:b1:b3:14:b7:2a:3f:a4:42:51:90:67:e7:a3:4d:
        9d:48:e6:c7:e8:1e:82:ee:f2:33:7e:e9:0c:77:a3:16:12:23:
        15:04:cf:4a:ea:51:9e:b5:3c:f3:76:7b:34:57:24:b5:32:1c:
        79:68:9b:a5:ef:16:e1:52:94:c1:6a:06:c3:1c:8c:a0:e8:12:
        7c:6b:0c:80:09:76:2d:dc:2c:0c:9c:00:1a:7e:83:07:87:97:
        c7:48:5f:f3:78:80:d7:84:1c:7d:ce:49:32:16:1a:c5:23:80:
        84:a0:c4:38:ab:58:b5:35:f5:f2:b8:e9:d4:64:48:4e:97:7c:
        a9:3a:81:93:39:a3:eb:9a:2c:3e:b4:9c:94:ec:69:b9:08:d1:
        57:c3:97:23:b2:40:57:c1:b5:f6:be:75:86:5f:c1:42:52:e1:
        5d:a0:38:d3:8f:9a:f7:2d:8c:58:79:48:94:4b:fe:d3:88:a0:
        21:fd:92:80:20:2d:35:7f:3b:85:a6:e7:ac:5b:00:99:50:5a:
        9a:b4:07:35
-----BEGIN CERTIFICATE-----
MIID7TCCAtWgAwIBAgICAQIwDQYJKoZIhvcNAQEFBQAwezELMAkGA1UEBhMCQVUx
EzARBgNVBAgMClF1ZWVuc2xhbmQxEjAQBgNVBAcMCUF1c3RyYWxpYTEVMBMGA1UE
CgwMQVBFYWdlcnMgTHRkMQ8wDQYDVQQLDAZSRFAtR0sxGzAZBgNVBAMMEmdrLmFw
ZWFnZXJzLmNvbS5hdTAeFw0xMzAzMjAyMzEyMzlaFw0xNDAzMjAyMzEyMzlaMHsx
CzAJBgNVBAYTAkFVMRMwEQYDVQQIDApRdWVlbnNsYW5kMRIwEAYDVQQHDAlBdXN0
cmFsaWExFTATBgNVBAoMDEFQRWFnZXJzIEx0ZDEPMA0GA1UECwwGUkRQLUdLMRsw
GQYDVQQDDBJnay5hcGVhZ2Vycy5jb20uYXUwggEiMA0GCSqGSIb3DQEBAQUAA4IB
DwAwggEKAoIBAQDYdN7LfD2QMj/D1Bnl+pvLdcOSb9snz/S4tSfoWqJk0I2U7CLD
QM/ejnto3xlCNdHTlWETBeihOv/ua/w916q0wkLqn5fFqLAFk9ypJTKMZI+0jQUV
yv0wBiY5EobxXNDgziHuCR06jRruASe4A95qrI1Xj5u6dDvnulAbIOzb7I6YtDIG
kzm4M5aKjwTzG9a1jpDiKXNxEmpXOVtJNwaFUH2fLe+6T63C7S2nGHZQ4EwX3vx9
+eh9+3V6mTLVvVI3ItpQxFuJyyTmT+splBFr/On9uIP5OIpUBrARpu595tVLc05d
uYiXArirI9Gk56ZuySWYoQCVEXMFDCUDBJ8FAgMBAAGjezB5MAkGA1UdEwQCMAAw
LAYJYIZIAYb4QgENBB8WHU9wZW5TU0wgR2VuZXJhdGVkIENlcnRpZmljYXRlMB0G
A1UdDgQWBBQ63/kS+kIiyMEu0UrXglGfC6TMNjAfBgNVHSMEGDAWgBQ63/kS+kIi
yMEu0UrXglGfC6TMNjANBgkqhkiG9w0BAQUFAAOCAQEASyMxtUOkhx9cXM5xYCzK
kBJ1IyYdnS3y9KMlC/uL9Q0R8Bliyd3hiDQ1cijaCH8hssBKnKgduzMPfbGzFLcq
P6RCUZBn56NNnUjmx+gegu7yM37pDHejFhIjFQTPSupRnrU883Z7NFcktTIceWib
pe8W4VKUwWoGwxyMoOgSfGsMgAl2LdwsDJwAGn6DB4eXx0hf83iA14Qcfc5JMhYa
xSOAhKDEOKtYtTX18rjp1GRITpd8qTqBkzmj65osPrSclOxpuQjRV8OXI7JAV8G1
9r51hl/BQlLhXaA404+a9y2MWHlIlEv+04igIf2SgCAtNX87habnrFsAmVBamrQH
NQ==
-----END CERTIFICATE-----
