Certificate:
    Data:
        Version: 3 (0x2)
        Serial Number: 259 (0x103)
        Signature Algorithm: sha1WithRSAEncryption
        Issuer: C=AU, ST=Australia, O=APEagers Ltd, OU=RDP-GK, CN=APE-CA.apeagers.com.au/emailAddress=issadmin@apeagers.com.au
        Validity
            Not Before: Mar 20 23:52:31 2013 GMT
            Not After : Mar 20 23:52:31 2014 GMT
        Subject: C=AU, ST=Queensland, L=Australia, O=APEagers Ltd, OU=RDP-GK, CN=gk.apeagers.com.au
        Subject Public Key Info:
            Public Key Algorithm: rsaEncryption
            RSA Public Key: (2048 bit)
                Modulus (2048 bit):
                    00:d8:74:de:cb:7c:3d:90:32:3f:c3:d4:19:e5:fa:
                    9b:cb:75:c3:92:6f:db:27:cf:f4:b8:b5:27:e8:5a:
                    a2:64:d0:8d:94:ec:22:c3:40:cf:de:8e:7b:68:df:
                    19:42:35:d1:d3:95:61:13:05:e8:a1:3a:ff:ee:6b:
                    fc:3d:d7:aa:b4:c2:42:ea:9f:97:c5:a8:b0:05:93:
                    dc:a9:25:32:8c:64:8f:b4:8d:05:15:ca:fd:30:06:
                    26:39:12:86:f1:5c:d0:e0:ce:21:ee:09:1d:3a:8d:
                    1a:ee:01:27:b8:03:de:6a:ac:8d:57:8f:9b:ba:74:
                    3b:e7:ba:50:1b:20:ec:db:ec:8e:98:b4:32:06:93:
                    39:b8:33:96:8a:8f:04:f3:1b:d6:b5:8e:90:e2:29:
                    73:71:12:6a:57:39:5b:49:37:06:85:50:7d:9f:2d:
                    ef:ba:4f:ad:c2:ed:2d:a7:18:76:50:e0:4c:17:de:
                    fc:7d:f9:e8:7d:fb:75:7a:99:32:d5:bd:52:37:22:
                    da:50:c4:5b:89:cb:24:e6:4f:eb:29:94:11:6b:fc:
                    e9:fd:b8:83:f9:38:8a:54:06:b0:11:a6:ee:7d:e6:
                    d5:4b:73:4e:5d:b9:88:97:02:b8:ab:23:d1:a4:e7:
                    a6:6e:c9:25:98:a1:00:95:11:73:05:0c:25:03:04:
                    9f:05
                Exponent: 65537 (0x10001)
        X509v3 extensions:
            X509v3 Basic Constraints: 
                CA:FALSE
            X509v3 Authority Key Identifier: 
                keyid:3A:DF:F9:12:FA:42:22:C8:C1:2E:D1:4A:D7:82:51:9F:0B:A4:CC:36
                DirName:/C=AU/ST=Australia/L=Australia/O=APEagers Ltd/OU=RDP-GK/CN=CA.apeagers.com.au/emailAddress=issadmin@apeagers.com.au
                serial:01:00

            X509v3 Key Usage: critical
                Digital Signature, Key Encipherment
            X509v3 Extended Key Usage: critical
                TLS Web Server Authentication, TLS Web Client Authentication
            Authority Information Access: 
                CA Issuers - URI:http://www.apeagers.com.au/

    Signature Algorithm: sha1WithRSAEncryption
        8b:91:ef:bc:f5:49:ab:c6:cd:1f:6f:c0:ea:96:f3:de:91:ab:
        e9:55:ea:c3:83:0e:1c:60:f4:b5:97:88:11:5d:ff:e6:aa:cb:
        cd:52:b8:40:6d:3e:6e:36:97:a6:0f:60:cd:94:4d:c0:29:ff:
        cf:ba:fa:74:f8:a3:b9:fe:15:7a:96:ea:21:63:40:61:c1:64:
        79:d8:6e:ef:ea:bf:6b:d8:e7:22:34:c7:c9:a0:0c:70:50:7f:
        07:f1:e3:13:99:0c:77:cb:54:ee:ac:76:0e:ca:73:79:5d:fc:
        91:4e:57:44:43:e9:41:77:1e:9d:8b:80:b4:d7:30:82:fe:4f:
        ba:a4:cb:8d:d2:18:8a:e2:36:10:ed:fa:45:2f:7f:9c:63:c8:
        31:51:67:57:18:56:ac:61:1a:49:1d:5b:f8:82:ab:71:e7:9a:
        93:81:9c:d7:a8:b8:61:b6:4a:e4:da:03:61:c5:b4:6b:3e:d0:
        25:11:9d:b5:df:01:0f:71:84:c5:e6:ec:58:7b:23:7e:e1:81:
        0d:0d:bc:23:66:82:0d:e7:7c:45:fa:6c:0d:7a:82:76:d3:42:
        53:71:92:c5:8c:1c:73:12:86:08:73:50:9d:ce:59:07:4b:ef:
        1f:ab:b8:74:b5:95:ce:0a:57:7d:9d:b2:d4:92:98:64:d7:da:
        9a:7c:56:c4
-----BEGIN CERTIFICATE-----
MIIE2zCCA8OgAwIBAgICAQMwDQYJKoZIhvcNAQEFBQAwgZMxCzAJBgNVBAYTAkFV
MRIwEAYDVQQIEwlBdXN0cmFsaWExFTATBgNVBAoTDEFQRWFnZXJzIEx0ZDEPMA0G
A1UECxMGUkRQLUdLMR8wHQYDVQQDExZBUEUtQ0EuYXBlYWdlcnMuY29tLmF1MScw
JQYJKoZIhvcNAQkBFhhpc3NhZG1pbkBhcGVhZ2Vycy5jb20uYXUwHhcNMTMwMzIw
MjM1MjMxWhcNMTQwMzIwMjM1MjMxWjB7MQswCQYDVQQGEwJBVTETMBEGA1UECAwK
UXVlZW5zbGFuZDESMBAGA1UEBwwJQXVzdHJhbGlhMRUwEwYDVQQKDAxBUEVhZ2Vy
cyBMdGQxDzANBgNVBAsMBlJEUC1HSzEbMBkGA1UEAwwSZ2suYXBlYWdlcnMuY29t
LmF1MIIBIjANBgkqhkiG9w0BAQEFAAOCAQ8AMIIBCgKCAQEA2HTey3w9kDI/w9QZ
5fqby3XDkm/bJ8/0uLUn6FqiZNCNlOwiw0DP3o57aN8ZQjXR05VhEwXooTr/7mv8
PdeqtMJC6p+XxaiwBZPcqSUyjGSPtI0FFcr9MAYmORKG8VzQ4M4h7gkdOo0a7gEn
uAPeaqyNV4+bunQ757pQGyDs2+yOmLQyBpM5uDOWio8E8xvWtY6Q4ilzcRJqVzlb
STcGhVB9ny3vuk+twu0tpxh2UOBMF978ffnofft1epky1b1SNyLaUMRbicsk5k/r
KZQRa/zp/biD+TiKVAawEabufebVS3NOXbmIlwK4qyPRpOembsklmKEAlRFzBQwl
AwSfBQIDAQABo4IBTjCCAUowCQYDVR0TBAIwADCB0QYDVR0jBIHJMIHGgBQ63/kS
+kIiyMEu0UrXglGfC6TMNqGBqaSBpjCBozELMAkGA1UEBhMCQVUxEjAQBgNVBAgT
CUF1c3RyYWxpYTESMBAGA1UEBxMJQXVzdHJhbGlhMRUwEwYDVQQKEwxBUEVhZ2Vy
cyBMdGQxDzANBgNVBAsTBlJEUC1HSzEbMBkGA1UEAxMSQ0EuYXBlYWdlcnMuY29t
LmF1MScwJQYJKoZIhvcNAQkBFhhpc3NhZG1pbkBhcGVhZ2Vycy5jb20uYXWCAgEA
MA4GA1UdDwEB/wQEAwIFoDAgBgNVHSUBAf8EFjAUBggrBgEFBQcDAQYIKwYBBQUH
AwIwNwYIKwYBBQUHAQEEKzApMCcGCCsGAQUFBzAChhtodHRwOi8vd3d3LmFwZWFn
ZXJzLmNvbS5hdS8wDQYJKoZIhvcNAQEFBQADggEBAIuR77z1SavGzR9vwOqW896R
q+lV6sODDhxg9LWXiBFd/+aqy81SuEBtPm42l6YPYM2UTcAp/8+6+nT4o7n+FXqW
6iFjQGHBZHnYbu/qv2vY5yI0x8mgDHBQfwfx4xOZDHfLVO6sdg7Kc3ld/JFOV0RD
6UF3Hp2LgLTXMIL+T7qky43SGIriNhDt+kUvf5xjyDFRZ1cYVqxhGkkdW/iCq3Hn
mpOBnNeouGG2SuTaA2HFtGs+0CURnbXfAQ9xhMXm7Fh7I37hgQ0NvCNmgg3nfEX6
bA16gnbTQlNxksWMHHMShghzUJ3OWQdL7x+ruHS1lc4KV32dstSSmGTX2pp8VsQ=
-----END CERTIFICATE-----
