Certificate:
    Data:
        Version: 3 (0x2)
        Serial Number: 261 (0x105)
        Signature Algorithm: sha1WithRSAEncryption
        Issuer: C=AU, ST=Australia, O=APEagers Ltd, OU=RDP-GK, CN=APE-CA.apeagers.com.au/emailAddress=issadmin@apeagers.com.au
        Validity
            Not Before: Mar 26 00:07:22 2014 GMT
            Not After : Mar 26 00:07:22 2015 GMT
        Subject: C=AU, ST=Australia, L=Australia, O=APEagers Ltd, OU=RDP-GK, CN=emp.gk.apeagers.com.au
        Subject Public Key Info:
            Public Key Algorithm: rsaEncryption
            RSA Public Key: (2048 bit)
                Modulus (2048 bit):
                    00:d8:74:de:cb:7c:3d:90:32:3f:c3:d4:19:e5:fa:
                    9b:cb:75:c3:92:6f:db:27:cf:f4:b8:b5:27:e8:5a:
                    a2:64:d0:8d:94:ec:22:c3:40:cf:de:8e:7b:68:df:
                    19:42:35:d1:d3:95:61:13:05:e8:a1:3a:ff:ee:6b:
                    fc:3d:d7:aa:b4:c2:42:ea:9f:97:c5:a8:b0:05:93:
                    dc:a9:25:32:8c:64:8f:b4:8d:05:15:ca:fd:30:06:
                    26:39:12:86:f1:5c:d0:e0:ce:21:ee:09:1d:3a:8d:
                    1a:ee:01:27:b8:03:de:6a:ac:8d:57:8f:9b:ba:74:
                    3b:e7:ba:50:1b:20:ec:db:ec:8e:98:b4:32:06:93:
                    39:b8:33:96:8a:8f:04:f3:1b:d6:b5:8e:90:e2:29:
                    73:71:12:6a:57:39:5b:49:37:06:85:50:7d:9f:2d:
                    ef:ba:4f:ad:c2:ed:2d:a7:18:76:50:e0:4c:17:de:
                    fc:7d:f9:e8:7d:fb:75:7a:99:32:d5:bd:52:37:22:
                    da:50:c4:5b:89:cb:24:e6:4f:eb:29:94:11:6b:fc:
                    e9:fd:b8:83:f9:38:8a:54:06:b0:11:a6:ee:7d:e6:
                    d5:4b:73:4e:5d:b9:88:97:02:b8:ab:23:d1:a4:e7:
                    a6:6e:c9:25:98:a1:00:95:11:73:05:0c:25:03:04:
                    9f:05
                Exponent: 65537 (0x10001)
        X509v3 extensions:
            X509v3 Basic Constraints: 
                CA:FALSE
            X509v3 Authority Key Identifier: 
                keyid:3A:DF:F9:12:FA:42:22:C8:C1:2E:D1:4A:D7:82:51:9F:0B:A4:CC:36
                DirName:/C=AU/ST=Australia/L=Australia/O=APEagers Ltd/OU=RDP-GK/CN=CA.apeagers.com.au/emailAddress=issadmin@apeagers.com.au
                serial:01:00

            X509v3 Key Usage: critical
                Digital Signature, Key Encipherment
            X509v3 Extended Key Usage: critical
                TLS Web Server Authentication, TLS Web Client Authentication
            Authority Information Access: 
                CA Issuers - URI:http://www.apeagers.com.au/

    Signature Algorithm: sha1WithRSAEncryption
        c4:ef:bf:e9:07:c0:9c:c6:6d:04:c2:43:19:2a:22:d9:63:3f:
        cb:bb:69:3d:34:fc:c6:aa:e5:15:3e:bb:1b:69:95:62:26:55:
        d0:97:e5:3e:33:29:0d:e8:a5:ae:00:d4:ab:cf:6d:83:52:ea:
        a5:17:e7:40:86:c1:8b:40:3d:4d:7b:42:df:79:9d:10:e3:26:
        47:82:57:1b:f8:e9:d0:7d:94:2a:ad:ca:cd:e7:db:61:11:8f:
        f6:7b:68:36:d7:ba:d2:0e:20:96:bf:31:13:c4:45:9c:55:70:
        99:2a:d8:30:83:fb:55:a8:32:d8:7a:03:81:9e:75:18:18:51:
        87:ca:27:ae:81:fc:ee:9e:ff:06:7f:4d:47:96:48:39:fc:25:
        dc:b9:0d:c6:7d:6c:2f:a6:79:42:48:88:16:9b:33:d8:89:2c:
        41:93:09:e3:7b:96:d7:cd:d7:99:b9:3a:16:43:49:db:c2:5e:
        f9:a7:15:9d:6c:14:2b:23:81:d8:04:fe:84:f3:09:e6:d5:0c:
        79:f5:3e:32:43:d5:1f:1b:af:f4:0b:3d:16:84:0a:f2:13:73:
        a8:fc:c2:0e:0f:57:55:06:50:af:2d:33:61:52:76:6c:06:72:
        72:2e:6b:3e:b2:ef:61:84:8c:2e:00:c6:0d:76:17:bd:29:4f:
        6b:fb:12:81
-----BEGIN CERTIFICATE-----
MIIE3jCCA8agAwIBAgICAQUwDQYJKoZIhvcNAQEFBQAwgZMxCzAJBgNVBAYTAkFV
MRIwEAYDVQQIEwlBdXN0cmFsaWExFTATBgNVBAoTDEFQRWFnZXJzIEx0ZDEPMA0G
A1UECxMGUkRQLUdLMR8wHQYDVQQDExZBUEUtQ0EuYXBlYWdlcnMuY29tLmF1MScw
JQYJKoZIhvcNAQkBFhhpc3NhZG1pbkBhcGVhZ2Vycy5jb20uYXUwHhcNMTQwMzI2
MDAwNzIyWhcNMTUwMzI2MDAwNzIyWjB+MQswCQYDVQQGEwJBVTESMBAGA1UECAwJ
QXVzdHJhbGlhMRIwEAYDVQQHDAlBdXN0cmFsaWExFTATBgNVBAoMDEFQRWFnZXJz
IEx0ZDEPMA0GA1UECwwGUkRQLUdLMR8wHQYDVQQDDBZlbXAuZ2suYXBlYWdlcnMu
Y29tLmF1MIIBIjANBgkqhkiG9w0BAQEFAAOCAQ8AMIIBCgKCAQEA2HTey3w9kDI/
w9QZ5fqby3XDkm/bJ8/0uLUn6FqiZNCNlOwiw0DP3o57aN8ZQjXR05VhEwXooTr/
7mv8PdeqtMJC6p+XxaiwBZPcqSUyjGSPtI0FFcr9MAYmORKG8VzQ4M4h7gkdOo0a
7gEnuAPeaqyNV4+bunQ757pQGyDs2+yOmLQyBpM5uDOWio8E8xvWtY6Q4ilzcRJq
VzlbSTcGhVB9ny3vuk+twu0tpxh2UOBMF978ffnofft1epky1b1SNyLaUMRbicsk
5k/rKZQRa/zp/biD+TiKVAawEabufebVS3NOXbmIlwK4qyPRpOembsklmKEAlRFz
BQwlAwSfBQIDAQABo4IBTjCCAUowCQYDVR0TBAIwADCB0QYDVR0jBIHJMIHGgBQ6
3/kS+kIiyMEu0UrXglGfC6TMNqGBqaSBpjCBozELMAkGA1UEBhMCQVUxEjAQBgNV
BAgTCUF1c3RyYWxpYTESMBAGA1UEBxMJQXVzdHJhbGlhMRUwEwYDVQQKEwxBUEVh
Z2VycyBMdGQxDzANBgNVBAsTBlJEUC1HSzEbMBkGA1UEAxMSQ0EuYXBlYWdlcnMu
Y29tLmF1MScwJQYJKoZIhvcNAQkBFhhpc3NhZG1pbkBhcGVhZ2Vycy5jb20uYXWC
AgEAMA4GA1UdDwEB/wQEAwIFoDAgBgNVHSUBAf8EFjAUBggrBgEFBQcDAQYIKwYB
BQUHAwIwNwYIKwYBBQUHAQEEKzApMCcGCCsGAQUFBzAChhtodHRwOi8vd3d3LmFw
ZWFnZXJzLmNvbS5hdS8wDQYJKoZIhvcNAQEFBQADggEBAMTvv+kHwJzGbQTCQxkq
ItljP8u7aT00/Maq5RU+uxtplWImVdCX5T4zKQ3opa4A1KvPbYNS6qUX50CGwYtA
PU17Qt95nRDjJkeCVxv46dB9lCqtys3n22ERj/Z7aDbXutIOIJa/MRPERZxVcJkq
2DCD+1WoMth6A4GedRgYUYfKJ66B/O6e/wZ/TUeWSDn8Jdy5DcZ9bC+meUJIiBab
M9iJLEGTCeN7ltfN15m5OhZDSdvCXvmnFZ1sFCsjgdgE/oTzCebVDHn1PjJD1R8b
r/QLPRaECvITc6j8wg4PV1UGUK8tM2FSdmwGcnIuaz6y72GEjC4Axg12F70pT2v7
EoE=
-----END CERTIFICATE-----
