Certificate:
    Data:
        Version: 3 (0x2)
        Serial Number: 262 (0x106)
        Signature Algorithm: sha1WithRSAEncryption
        Issuer: C=AU, ST=Australia, O=APEagers Ltd, OU=RDP-GK, CN=APE-CA.apeagers.com.au/emailAddress=issadmin@apeagers.com.au
        Validity
            Not Before: Mar 26 00:21:23 2014 GMT
            Not After : Mar 26 00:21:23 2015 GMT
        Subject: C=AU, ST=Australia, L=Australia, O=APEagers Ltd, OU=RDP-GK, CN=emp.gk.apeagers.com.au
        Subject Public Key Info:
            Public Key Algorithm: rsaEncryption
            RSA Public Key: (2048 bit)
                Modulus (2048 bit):
                    00:d8:74:de:cb:7c:3d:90:32:3f:c3:d4:19:e5:fa:
                    9b:cb:75:c3:92:6f:db:27:cf:f4:b8:b5:27:e8:5a:
                    a2:64:d0:8d:94:ec:22:c3:40:cf:de:8e:7b:68:df:
                    19:42:35:d1:d3:95:61:13:05:e8:a1:3a:ff:ee:6b:
                    fc:3d:d7:aa:b4:c2:42:ea:9f:97:c5:a8:b0:05:93:
                    dc:a9:25:32:8c:64:8f:b4:8d:05:15:ca:fd:30:06:
                    26:39:12:86:f1:5c:d0:e0:ce:21:ee:09:1d:3a:8d:
                    1a:ee:01:27:b8:03:de:6a:ac:8d:57:8f:9b:ba:74:
                    3b:e7:ba:50:1b:20:ec:db:ec:8e:98:b4:32:06:93:
                    39:b8:33:96:8a:8f:04:f3:1b:d6:b5:8e:90:e2:29:
                    73:71:12:6a:57:39:5b:49:37:06:85:50:7d:9f:2d:
                    ef:ba:4f:ad:c2:ed:2d:a7:18:76:50:e0:4c:17:de:
                    fc:7d:f9:e8:7d:fb:75:7a:99:32:d5:bd:52:37:22:
                    da:50:c4:5b:89:cb:24:e6:4f:eb:29:94:11:6b:fc:
                    e9:fd:b8:83:f9:38:8a:54:06:b0:11:a6:ee:7d:e6:
                    d5:4b:73:4e:5d:b9:88:97:02:b8:ab:23:d1:a4:e7:
                    a6:6e:c9:25:98:a1:00:95:11:73:05:0c:25:03:04:
                    9f:05
                Exponent: 65537 (0x10001)
        X509v3 extensions:
            X509v3 Basic Constraints: 
                CA:FALSE
            X509v3 Authority Key Identifier: 
                keyid:3A:DF:F9:12:FA:42:22:C8:C1:2E:D1:4A:D7:82:51:9F:0B:A4:CC:36
                DirName:/C=AU/ST=Australia/L=Australia/O=APEagers Ltd/OU=RDP-GK/CN=CA.apeagers.com.au/emailAddress=issadmin@apeagers.com.au
                serial:01:01

            X509v3 Key Usage: critical
                Digital Signature, Key Encipherment
            X509v3 Extended Key Usage: critical
                TLS Web Server Authentication, TLS Web Client Authentication
            Authority Information Access: 
                CA Issuers - URI:http://www.apeagers.com.au/

    Signature Algorithm: sha1WithRSAEncryption
        aa:7a:7d:df:aa:98:a2:0e:9d:ca:0d:f5:6b:23:34:37:25:9a:
        5e:90:6c:70:72:a6:d4:0d:6e:e0:97:ea:f7:43:eb:25:64:3f:
        c6:97:88:ea:e7:cc:92:61:ce:c6:18:fa:c7:0b:53:8b:93:4e:
        f3:b3:c7:2c:5b:b4:39:09:62:e7:3e:f1:c2:5e:cb:6c:e6:d7:
        67:e8:4a:82:a9:8e:be:22:bb:85:fa:34:87:ab:d1:aa:1c:31:
        cf:76:46:9b:ff:2f:ae:e8:39:1b:95:cd:37:8a:b2:21:d9:0f:
        d2:e2:03:18:69:30:66:aa:12:dd:11:78:9d:c1:41:b5:81:be:
        f1:9a:81:70:1a:1c:19:2f:3b:8d:9f:92:b2:8f:c8:fc:cd:81:
        32:56:e2:22:8b:4a:54:49:84:9e:12:fd:4f:ce:00:e9:6e:0a:
        96:b8:a9:14:d8:5d:99:95:b6:6a:0d:d7:73:1d:26:3f:23:4c:
        dd:68:88:71:fd:6f:05:be:c7:1f:0c:78:11:5d:da:31:75:9d:
        58:d8:50:a7:c0:dd:4b:49:11:6b:b0:42:1b:e1:50:62:18:be:
        b2:23:c7:28:67:c9:e5:65:53:f7:4a:f7:1a:9f:11:a2:63:3a:
        b0:be:d8:0b:cb:c1:61:5c:35:c4:16:d0:08:13:4e:d2:b8:13:
        9d:dd:7d:b5
-----BEGIN CERTIFICATE-----
MIIE3jCCA8agAwIBAgICAQYwDQYJKoZIhvcNAQEFBQAwgZMxCzAJBgNVBAYTAkFV
MRIwEAYDVQQIEwlBdXN0cmFsaWExFTATBgNVBAoTDEFQRWFnZXJzIEx0ZDEPMA0G
A1UECxMGUkRQLUdLMR8wHQYDVQQDExZBUEUtQ0EuYXBlYWdlcnMuY29tLmF1MScw
JQYJKoZIhvcNAQkBFhhpc3NhZG1pbkBhcGVhZ2Vycy5jb20uYXUwHhcNMTQwMzI2
MDAyMTIzWhcNMTUwMzI2MDAyMTIzWjB+MQswCQYDVQQGEwJBVTESMBAGA1UECAwJ
QXVzdHJhbGlhMRIwEAYDVQQHDAlBdXN0cmFsaWExFTATBgNVBAoMDEFQRWFnZXJz
IEx0ZDEPMA0GA1UECwwGUkRQLUdLMR8wHQYDVQQDDBZlbXAuZ2suYXBlYWdlcnMu
Y29tLmF1MIIBIjANBgkqhkiG9w0BAQEFAAOCAQ8AMIIBCgKCAQEA2HTey3w9kDI/
w9QZ5fqby3XDkm/bJ8/0uLUn6FqiZNCNlOwiw0DP3o57aN8ZQjXR05VhEwXooTr/
7mv8PdeqtMJC6p+XxaiwBZPcqSUyjGSPtI0FFcr9MAYmORKG8VzQ4M4h7gkdOo0a
7gEnuAPeaqyNV4+bunQ757pQGyDs2+yOmLQyBpM5uDOWio8E8xvWtY6Q4ilzcRJq
VzlbSTcGhVB9ny3vuk+twu0tpxh2UOBMF978ffnofft1epky1b1SNyLaUMRbicsk
5k/rKZQRa/zp/biD+TiKVAawEabufebVS3NOXbmIlwK4qyPRpOembsklmKEAlRFz
BQwlAwSfBQIDAQABo4IBTjCCAUowCQYDVR0TBAIwADCB0QYDVR0jBIHJMIHGgBQ6
3/kS+kIiyMEu0UrXglGfC6TMNqGBqaSBpjCBozELMAkGA1UEBhMCQVUxEjAQBgNV
BAgTCUF1c3RyYWxpYTESMBAGA1UEBxMJQXVzdHJhbGlhMRUwEwYDVQQKEwxBUEVh
Z2VycyBMdGQxDzANBgNVBAsTBlJEUC1HSzEbMBkGA1UEAxMSQ0EuYXBlYWdlcnMu
Y29tLmF1MScwJQYJKoZIhvcNAQkBFhhpc3NhZG1pbkBhcGVhZ2Vycy5jb20uYXWC
AgEBMA4GA1UdDwEB/wQEAwIFoDAgBgNVHSUBAf8EFjAUBggrBgEFBQcDAQYIKwYB
BQUHAwIwNwYIKwYBBQUHAQEEKzApMCcGCCsGAQUFBzAChhtodHRwOi8vd3d3LmFw
ZWFnZXJzLmNvbS5hdS8wDQYJKoZIhvcNAQEFBQADggEBAKp6fd+qmKIOncoN9Wsj
NDclml6QbHByptQNbuCX6vdD6yVkP8aXiOrnzJJhzsYY+scLU4uTTvOzxyxbtDkJ
Yuc+8cJey2zm12foSoKpjr4iu4X6NIer0aocMc92Rpv/L67oORuVzTeKsiHZD9Li
AxhpMGaqEt0ReJ3BQbWBvvGagXAaHBkvO42fkrKPyPzNgTJW4iKLSlRJhJ4S/U/O
AOluCpa4qRTYXZmVtmoN13MdJj8jTN1oiHH9bwW+xx8MeBFd2jF1nVjYUKfA3UtJ
EWuwQhvhUGIYvrIjxyhnyeVlU/dK9xqfEaJjOrC+2AvLwWFcNcQW0AgTTtK4E53d
fbU=
-----END CERTIFICATE-----
