Certificate:
    Data:
        Version: 3 (0x2)
        Serial Number: 256 (0x100)
        Signature Algorithm: sha1WithRSAEncryption
        Issuer: C=AU, ST=Australia, O=APEagers Ltd, OU=RDP-GK, CN=CA.apeagers.com.au/emailAddress=issadmin@apeagers.com.au
        Validity
            Not Before: Mar 19 01:42:05 2013 GMT
            Not After : Mar 19 01:42:05 2014 GMT
        Subject: C=AU, ST=Australia, O=APEagers Ltd, OU=RDP-GK, CN=APE-CA.apeagers.com.au/emailAddress=issadmin@apeagers.com.au
        Subject Public Key Info:
            Public Key Algorithm: rsaEncryption
            RSA Public Key: (2048 bit)
                Modulus (2048 bit):
                    00:bc:a0:0c:a1:41:6e:cf:42:8f:78:d7:d6:ff:d6:
                    93:08:fb:0c:5f:8c:93:40:2e:94:a8:8e:a8:47:2f:
                    e6:c9:49:fa:bf:02:79:93:42:9a:5f:57:e2:f7:ba:
                    6d:0d:86:bc:fb:db:ce:bf:8b:87:cf:50:9a:af:6d:
                    1d:06:da:41:8d:1d:ef:99:6b:24:3a:d4:68:e2:85:
                    7e:2b:c5:64:b8:19:a0:8f:5c:33:14:b2:a6:9d:f2:
                    8b:01:08:e6:6a:76:fb:de:ea:2f:4d:91:d2:42:6b:
                    3a:04:a3:f0:64:2b:18:83:de:8e:1d:50:ec:c8:ba:
                    ed:84:bd:20:06:35:49:8b:04:2d:07:b3:b1:07:e2:
                    58:05:ce:9a:9d:8d:d1:c1:b9:7b:5c:02:2e:06:18:
                    de:1f:da:85:05:3d:cf:b8:e5:6d:f9:86:44:ca:ed:
                    cc:cb:c9:46:d4:75:54:d4:71:25:fe:0b:33:89:b6:
                    47:aa:50:9d:e8:f0:6a:6e:f4:09:20:8d:ac:f7:be:
                    a7:c0:8f:79:40:b3:67:67:00:5f:8b:e3:e9:5f:d0:
                    41:4f:23:e9:7d:a5:b5:a5:45:ef:af:7e:0a:be:5d:
                    07:e5:fe:41:a3:c7:7f:f8:e8:64:c1:09:6b:eb:46:
                    49:09:1e:08:a4:82:d6:ce:e9:67:3d:fc:e0:05:d6:
                    35:67
                Exponent: 65537 (0x10001)
        X509v3 extensions:
            X509v3 Subject Key Identifier: 
                73:30:9E:9D:57:82:BA:E2:D2:95:44:76:31:42:65:D8:1B:BB:D0:0C
            X509v3 Authority Key Identifier: 
                keyid:C6:7E:DC:16:F0:B4:94:D5:86:90:EF:30:4D:79:CA:1A:27:6E:AA:C9
                DirName:/C=AU/ST=Australia/O=APEagers Ltd/OU=RDP-GK/CN=CA.apeagers.com.au/emailAddress=issadmin@apeagers.com.au
                serial:DF:10:2D:9D:67:1D:7A:54

            X509v3 Basic Constraints: 
                CA:TRUE
    Signature Algorithm: sha1WithRSAEncryption
        97:f1:d4:94:22:2e:86:71:aa:00:0f:d2:bc:15:b3:6b:02:ab:
        87:26:e5:91:93:a7:c2:4a:b9:89:67:7b:2b:53:c3:84:81:ae:
        b7:4f:2f:7f:aa:68:d5:f6:f5:15:fa:7f:52:f2:88:69:c9:72:
        72:e4:ae:f5:97:84:3a:38:7a:30:23:b0:d6:fc:f6:85:43:3d:
        97:be:a4:e1:a2:15:be:73:83:4c:8c:10:3a:cc:9f:ce:16:04:
        96:f2:c9:7f:2d:6f:7c:64:22:c6:c5:c8:3f:71:ca:94:67:a6:
        f4:8b:57:34:12:86:4c:8b:09:9f:18:ab:b2:db:54:d7:99:91:
        03:fe:0f:91:05:96:31:0b:25:d8:8d:f4:cb:59:37:cc:75:2c:
        c7:fb:8b:a5:1f:4b:62:6f:87:73:da:7c:7a:00:c3:c3:69:d4:
        eb:d8:bd:b1:28:d3:41:23:45:63:8b:36:0c:f2:68:e6:62:a7:
        d3:4d:3e:7f:8f:9b:aa:2e:9d:a4:f4:fa:5a:44:d2:92:70:74:
        34:5f:f9:ec:0a:bd:d4:63:28:e1:e4:2e:12:67:89:31:8c:d8:
        75:23:21:76:f0:02:1b:5f:26:ef:48:a4:78:a4:f4:f9:0d:f3:
        50:aa:2e:1a:3f:4b:40:2c:bf:c1:15:15:d5:37:01:ef:d7:dd:
        95:67:27:b4
-----BEGIN CERTIFICATE-----
MIIEmDCCA4CgAwIBAgICAQAwDQYJKoZIhvcNAQEFBQAwgY8xCzAJBgNVBAYTAkFV
MRIwEAYDVQQIEwlBdXN0cmFsaWExFTATBgNVBAoTDEFQRWFnZXJzIEx0ZDEPMA0G
A1UECxMGUkRQLUdLMRswGQYDVQQDExJDQS5hcGVhZ2Vycy5jb20uYXUxJzAlBgkq
hkiG9w0BCQEWGGlzc2FkbWluQGFwZWFnZXJzLmNvbS5hdTAeFw0xMzAzMTkwMTQy
MDVaFw0xNDAzMTkwMTQyMDVaMIGTMQswCQYDVQQGEwJBVTESMBAGA1UECBMJQXVz
dHJhbGlhMRUwEwYDVQQKEwxBUEVhZ2VycyBMdGQxDzANBgNVBAsTBlJEUC1HSzEf
MB0GA1UEAxMWQVBFLUNBLmFwZWFnZXJzLmNvbS5hdTEnMCUGCSqGSIb3DQEJARYY
aXNzYWRtaW5AYXBlYWdlcnMuY29tLmF1MIIBIjANBgkqhkiG9w0BAQEFAAOCAQ8A
MIIBCgKCAQEAvKAMoUFuz0KPeNfW/9aTCPsMX4yTQC6UqI6oRy/myUn6vwJ5k0Ka
X1fi97ptDYa8+9vOv4uHz1Car20dBtpBjR3vmWskOtRo4oV+K8VkuBmgj1wzFLKm
nfKLAQjmanb73uovTZHSQms6BKPwZCsYg96OHVDsyLrthL0gBjVJiwQtB7OxB+JY
Bc6anY3Rwbl7XAIuBhjeH9qFBT3PuOVt+YZEyu3My8lG1HVU1HEl/gszibZHqlCd
6PBqbvQJII2s976nwI95QLNnZwBfi+PpX9BBTyPpfaW1pUXvr34Kvl0H5f5Bo8d/
+OhkwQlr60ZJCR4IpILWzulnPfzgBdY1ZwIDAQABo4H3MIH0MB0GA1UdDgQWBBRz
MJ6dV4K64tKVRHYxQmXYG7vQDDCBxAYDVR0jBIG8MIG5gBTGftwW8LSU1YaQ7zBN
ecoaJ26qyaGBlaSBkjCBjzELMAkGA1UEBhMCQVUxEjAQBgNVBAgTCUF1c3RyYWxp
YTEVMBMGA1UEChMMQVBFYWdlcnMgTHRkMQ8wDQYDVQQLEwZSRFAtR0sxGzAZBgNV
BAMTEkNBLmFwZWFnZXJzLmNvbS5hdTEnMCUGCSqGSIb3DQEJARYYaXNzYWRtaW5A
YXBlYWdlcnMuY29tLmF1ggkA3xAtnWcdelQwDAYDVR0TBAUwAwEB/zANBgkqhkiG
9w0BAQUFAAOCAQEAl/HUlCIuhnGqAA/SvBWzawKrhyblkZOnwkq5iWd7K1PDhIGu
t08vf6po1fb1Ffp/UvKIaclycuSu9ZeEOjh6MCOw1vz2hUM9l76k4aIVvnODTIwQ
OsyfzhYElvLJfy1vfGQixsXIP3HKlGem9ItXNBKGTIsJnxirsttU15mRA/4PkQWW
MQsl2I30y1k3zHUsx/uLpR9LYm+Hc9p8egDDw2nU69i9sSjTQSNFY4s2DPJo5mKn
000+f4+bqi6dpPT6WkTSknB0NF/57Aq91GMo4eQuEmeJMYzYdSMhdvACG18m70ik
eKT0+Q3zUKouGj9LQCy/wRUV1TcB79fdlWcntA==
-----END CERTIFICATE-----
